
TesD.elf:     file format elf32-avr

Sections:
Idx Name          Size      VMA       LMA       File off  Algn
  0 .data         0000000e  00800100  00003496  0000352a  2**0
                  CONTENTS, ALLOC, LOAD, DATA
  1 .text         00003496  00000000  00000000  00000094  2**1
                  CONTENTS, ALLOC, LOAD, READONLY, CODE
  2 .bss          00000d7d  0080010e  0080010e  00003538  2**0
                  ALLOC
  3 .comment      0000005c  00000000  00000000  00003538  2**0
                  CONTENTS, READONLY
  4 .note.gnu.avr.deviceinfo 0000003c  00000000  00000000  00003594  2**2
                  CONTENTS, READONLY

Disassembly of section .text:

00000000 <__vectors>:
       0:	e1 c3       	rjmp	.+1986   	; 0x7c4 <__ctors_end>
       2:	00 00       	nop
       4:	0c 94 82 16 	jmp	0x2d04	; 0x2d04 <__vector_1>
       8:	fc c3       	rjmp	.+2040   	; 0x802 <__bad_interrupt>
       a:	00 00       	nop
       c:	fa c3       	rjmp	.+2036   	; 0x802 <__bad_interrupt>
       e:	00 00       	nop
      10:	f8 c3       	rjmp	.+2032   	; 0x802 <__bad_interrupt>
      12:	00 00       	nop
      14:	0c 94 aa 16 	jmp	0x2d54	; 0x2d54 <__vector_5>
      18:	0c 94 d3 16 	jmp	0x2da6	; 0x2da6 <__vector_6>
      1c:	0c 94 fc 16 	jmp	0x2df8	; 0x2df8 <__vector_7>
      20:	0c 94 25 17 	jmp	0x2e4a	; 0x2e4a <__vector_8>
      24:	ee c3       	rjmp	.+2012   	; 0x802 <__bad_interrupt>
      26:	00 00       	nop
      28:	ec c3       	rjmp	.+2008   	; 0x802 <__bad_interrupt>
      2a:	00 00       	nop
      2c:	ea c3       	rjmp	.+2004   	; 0x802 <__bad_interrupt>
      2e:	00 00       	nop
      30:	e8 c3       	rjmp	.+2000   	; 0x802 <__bad_interrupt>
      32:	00 00       	nop
      34:	e6 c3       	rjmp	.+1996   	; 0x802 <__bad_interrupt>
      36:	00 00       	nop
      38:	e4 c3       	rjmp	.+1992   	; 0x802 <__bad_interrupt>
      3a:	00 00       	nop
      3c:	e2 c3       	rjmp	.+1988   	; 0x802 <__bad_interrupt>
      3e:	00 00       	nop
      40:	0c 94 00 15 	jmp	0x2a00	; 0x2a00 <__vector_16>
      44:	de c3       	rjmp	.+1980   	; 0x802 <__bad_interrupt>
      46:	00 00       	nop
      48:	0c 94 03 16 	jmp	0x2c06	; 0x2c06 <__vector_18>
      4c:	da c3       	rjmp	.+1972   	; 0x802 <__bad_interrupt>
      4e:	00 00       	nop
      50:	d8 c3       	rjmp	.+1968   	; 0x802 <__bad_interrupt>
      52:	00 00       	nop
      54:	d6 c3       	rjmp	.+1964   	; 0x802 <__bad_interrupt>
      56:	00 00       	nop
      58:	d4 c3       	rjmp	.+1960   	; 0x802 <__bad_interrupt>
      5a:	00 00       	nop
      5c:	d2 c3       	rjmp	.+1956   	; 0x802 <__bad_interrupt>
      5e:	00 00       	nop
      60:	d0 c3       	rjmp	.+1952   	; 0x802 <__bad_interrupt>
      62:	00 00       	nop
      64:	ce c3       	rjmp	.+1948   	; 0x802 <__bad_interrupt>
      66:	00 00       	nop
      68:	cc c3       	rjmp	.+1944   	; 0x802 <__bad_interrupt>
      6a:	00 00       	nop
      6c:	ca c3       	rjmp	.+1940   	; 0x802 <__bad_interrupt>
      6e:	00 00       	nop
      70:	c8 c3       	rjmp	.+1936   	; 0x802 <__bad_interrupt>
      72:	00 00       	nop
      74:	c6 c3       	rjmp	.+1932   	; 0x802 <__bad_interrupt>
      76:	00 00       	nop
      78:	0c 94 4e 16 	jmp	0x2c9c	; 0x2c9c <__vector_30>
      7c:	c2 c3       	rjmp	.+1924   	; 0x802 <__bad_interrupt>
      7e:	00 00       	nop
      80:	c0 c3       	rjmp	.+1920   	; 0x802 <__bad_interrupt>
      82:	00 00       	nop
      84:	be c3       	rjmp	.+1916   	; 0x802 <__bad_interrupt>
      86:	00 00       	nop
      88:	bc c3       	rjmp	.+1912   	; 0x802 <__bad_interrupt>
	...

0000008c <__trampolines_end>:
      8c:	25 30       	cpi	r18, 0x05	; 5
      8e:	32 58       	subi	r19, 0x82	; 130
      90:	20 25       	eor	r18, r0
      92:	30 32       	cpi	r19, 0x20	; 32
      94:	58 0d       	add	r21, r8
      96:	0a 00       	.word	0x000a	; ????

00000098 <__c.2245>:
      98:	30 43 20 25 30 32 58 0d 0a 30 44 20 25 30 32 58     0C %02X..0D %02X
      a8:	0d 0a 00                                            ...

000000ab <__c.2239>:
      ab:	30 36 20 25 30 32 58 0d 0a 00                       06 %02X...

000000b5 <__c.2220>:
      b5:	6d 6f 64 65 20 3d 20 25 30 32 58 0d 0a 00           mode = %02X...

000000c3 <__c.2215>:
      c3:	61 64 64 72 20 3d 20 25 30 34 58 20 00              addr = %04X .

000000d0 <__c.2210>:
      d0:	61 74 74 72 20 3d 20 25 30 32 58 20 00              attr = %02X .

000000dd <__c.2204>:
      dd:	64 69 76 20 69 64 20 3d 20 25 30 32 64 20 00        div id = %02d .

000000ec <__c.2198>:
      ec:	63 68 2e 25 64 20 00                                ch.%d .

000000f3 <__c.2195>:
      f3:	53 43 43 20 49 6e 69 74 69 61 6c 20 66 6f 72 20     SCC Initial for 
     103:	75 6e 69 74 23 25 64 2e 0d 0a 00                    unit#%d....

0000010e <crc16Table>:
     10e:	00 00 21 10 42 20 63 30 84 40 a5 50 c6 60 e7 70     ..!.B c0.@.P.`.p
     11e:	08 81 29 91 4a a1 6b b1 8c c1 ad d1 ce e1 ef f1     ..).J.k.........
     12e:	31 12 10 02 73 32 52 22 b5 52 94 42 f7 72 d6 62     1...s2R".R.B.r.b
     13e:	39 93 18 83 7b b3 5a a3 bd d3 9c c3 ff f3 de e3     9...{.Z.........
     14e:	62 24 43 34 20 04 01 14 e6 64 c7 74 a4 44 85 54     b$C4 ....d.t.D.T
     15e:	6a a5 4b b5 28 85 09 95 ee e5 cf f5 ac c5 8d d5     j.K.(...........
     16e:	53 36 72 26 11 16 30 06 d7 76 f6 66 95 56 b4 46     S6r&..0..v.f.V.F
     17e:	5b b7 7a a7 19 97 38 87 df f7 fe e7 9d d7 bc c7     [.z...8.........
     18e:	c4 48 e5 58 86 68 a7 78 40 08 61 18 02 28 23 38     .H.X.h.x@.a..(#8
     19e:	cc c9 ed d9 8e e9 af f9 48 89 69 99 0a a9 2b b9     ........H.i...+.
     1ae:	f5 5a d4 4a b7 7a 96 6a 71 1a 50 0a 33 3a 12 2a     .Z.J.z.jq.P.3:.*
     1be:	fd db dc cb bf fb 9e eb 79 9b 58 8b 3b bb 1a ab     ........y.X.;...
     1ce:	a6 6c 87 7c e4 4c c5 5c 22 2c 03 3c 60 0c 41 1c     .l.|.L.\",.<`.A.
     1de:	ae ed 8f fd ec cd cd dd 2a ad 0b bd 68 8d 49 9d     ........*...h.I.
     1ee:	97 7e b6 6e d5 5e f4 4e 13 3e 32 2e 51 1e 70 0e     .~.n.^.N.>2.Q.p.
     1fe:	9f ff be ef dd df fc cf 1b bf 3a af 59 9f 78 8f     ..........:.Y.x.
     20e:	88 91 a9 81 ca b1 eb a1 0c d1 2d c1 4e f1 6f e1     ..........-.N.o.
     21e:	80 10 a1 00 c2 30 e3 20 04 50 25 40 46 70 67 60     .....0. .P%@Fpg`
     22e:	b9 83 98 93 fb a3 da b3 3d c3 1c d3 7f e3 5e f3     ........=.....^.
     23e:	b1 02 90 12 f3 22 d2 32 35 42 14 52 77 62 56 72     .....".25B.RwbVr
     24e:	ea b5 cb a5 a8 95 89 85 6e f5 4f e5 2c d5 0d c5     ........n.O.,...
     25e:	e2 34 c3 24 a0 14 81 04 66 74 47 64 24 54 05 44     .4.$....ftGd$T.D
     26e:	db a7 fa b7 99 87 b8 97 5f e7 7e f7 1d c7 3c d7     ........_.~...<.
     27e:	d3 26 f2 36 91 06 b0 16 57 66 76 76 15 46 34 56     .&.6....Wfvv.F4V
     28e:	4c d9 6d c9 0e f9 2f e9 c8 99 e9 89 8a b9 ab a9     L.m.../.........
     29e:	44 58 65 48 06 78 27 68 c0 18 e1 08 82 38 a3 28     DXeH.x'h.....8.(
     2ae:	7d cb 5c db 3f eb 1e fb f9 8b d8 9b bb ab 9a bb     }.\.?...........
     2be:	75 4a 54 5a 37 6a 16 7a f1 0a d0 1a b3 2a 92 3a     uJTZ7j.z.....*.:
     2ce:	2e fd 0f ed 6c dd 4d cd aa bd 8b ad e8 9d c9 8d     ....l.M.........
     2de:	26 7c 07 6c 64 5c 45 4c a2 3c 83 2c e0 1c c1 0c     &|.ld\EL.<.,....
     2ee:	1f ef 3e ff 5d cf 7c df 9b af ba bf d9 8f f8 9f     ..>.].|.........
     2fe:	17 6e 36 7e 55 4e 74 5e 93 2e b2 3e d1 0e f0 1e     .n6~UNt^...>....

0000030e <syncInitTable>:
     30e:	09 c0 04 20 01 00 03 c8 05 61 06 ff 07 7e 0a a8     ... .....a...~..
     31e:	0b 57 0c ee 0d 00 0e 03 0f 01 07 2b 03 c9 05 6b     .W.........+...k
     32e:	00 c0 00 80 00 40 00 30 00 10 00 28 0f 40 01 12     .....@.0...(.@..
     33e:	09 2a ff ff                                         .*..

00000342 <asyncInitTable>:
     342:	09 c0 04 04 03 c0 05 60 06 00 07 00 0a 00 0b 56     .......`.......V
     352:	0c ee 0d 00 0e 83 0f 00 03 c1 05 6a 01 12 09 0a     ...........j....
     362:	ff ff                                               ..

00000364 <wBaudrates>:
     364:	be 03 de 01 ee 00 4e 00 22 00 10 00 07 00 04 00     ......N.".......

00000374 <defSccSendLeng>:
     374:	14 09 0a 21 0a 64 12 24 21 11 09 09                 ...!.d.$!...

00000380 <defSccConf>:
     380:	60 00 00 00 21 00 ff ff 41 00 ff ff 32 00 40 ff     `...!...A...2.@.
     390:	42 00 ff ff 32 00 60 01 43 00 ff ff 32 00 60 02     B...2.`.C...2.`.
     3a0:	44 00 ff ff 32 00 60 04 45 00 00 00 03 00 ff ff     D...2.`.E.......
     3b0:	46 00 ff ff 32 00 90 ff 47 00 ff ff 32 00 20 ff     F...2...G...2. .
     3c0:	48 00 ff ff 32 00 10 ff 49 00 ff ff 32 00 70 ff     H...2...I...2.p.
     3d0:	4a 00 ff ff 32 00 70 01 4b 00 ff ff 32 00 70 11     J...2.p.K...2.p.
     3e0:	4c 00 ff ff 01 00 44 44 4d 00 ff ff 32 00 88 88     L.....DDM...2...

000003f0 <defDevices>:
     3f0:	01 01 00 0c 02 03 04 0d 09 08 06 0a 0b 08 08 08     ................
     400:	09 08 07 0a 0b 08 08 08 09 08 07 0a 0b 08 08 08     ................
     410:	09 08 07 0a 0b 08 08 08 09 08 07 0a 0b 08 08 08     ................
     420:	09 08 06 0a 0b 08 08 08 09 08 07 0a 0b 08 08 08     ................
     430:	09 08 07 0a 0b 08 08 08 09 08 07 0a 0b 08 08 08     ................
     440:	09 08 06 0a 0b 08 08 08 01 01 00 0c 02 03 04 0d     ................

00000450 <__c.2407>:
     450:	43 6c 6f 73 65 20 73 6f 63 6b 65 74 21 21 21 21     Close socket!!!!
     460:	21 0d 0a 00                                         !...

00000464 <__c.2691>:
     464:	25 64 2e 25 64 2e 25 64 2e 25 64 00                 %d.%d.%d.%d.

00000470 <__c.2675>:
     470:	41 62 73 74 72 61 63 74 20 66 61 69 6c 75 72 65     Abstract failure
     480:	21 28 25 64 2d 25 64 29 0d 0a 00                    !(%d-%d)...

0000048b <__c.2670>:
     48b:	41 62 73 74 72 61 63 74 20 72 65 73 75 6c 74 20     Abstract result 
     49b:	6c 65 6e 67 3d 25 30 32 58 2c 20 63 6d 64 3d 25     leng=%02X, cmd=%
     4ab:	30 32 58 2c 20 63 69 64 3d 25 30 32 78 0d 0a 00     02X, cid=%02x...

000004bb <__c.2656>:
     4bb:	43 68 2e 28 25 64 29 69 73 20 6f 75 74 21 0d 0a     Ch.(%d)is out!..
	...

000004cc <__c.2652>:
     4cc:	53 65 6e 64 20 64 61 74 61 20 65 6d 70 74 79 20     Send data empty 
     4dc:	61 74 20 63 68 2e 25 64 2e 0d 0a 00                 at ch.%d....

000004e8 <__c.2650>:
     4e8:	53 65 6e 64 20 25 64 20 62 79 74 65 20 74 6f 20     Send %d byte to 
     4f8:	63 68 2e 25 64 0d 0a 00                             ch.%d...

00000500 <__c.2645>:
     500:	49 6e 69 74 69 61 6c 20 63 68 2e 25 64 20 26 20     Initial ch.%d & 
     510:	63 68 2e 25 64 0d 0a 00                             ch.%d...

00000518 <__c.2640>:
     518:	43 6f 6d 6d 2e 20 63 6f 6d 6d 61 6e 64 20 25 58     Comm. command %X
     528:	20 63 68 2e 25 64 0d 0a 00                           ch.%d...

00000531 <__c.2605>:
     531:	52 65 63 65 69 76 65 20 6c 65 6e 67 74 68 20 65     Receive length e
     541:	72 72 6f 72 20 63 68 2e 25 64 21 28 25 64 29 0d     rror ch.%d!(%d).
     551:	0a 00                                               ..

00000553 <__c.2603>:
     553:	52 65 63 65 69 76 65 20 63 72 63 20 65 72 72 6f     Receive crc erro
     563:	72 20 63 68 2e 25 64 21 28 63 2d 25 30 34 58 2c     r ch.%d!(c-%04X,
     573:	20 72 2d 25 30 32 58 25 30 32 58 29 0d 0a 00         r-%02X%02X)...

00000582 <__c.2597>:
     582:	49 6e 70 75 74 20 62 6f 61 72 64 20 6c 65 6e 67     Input board leng
     592:	74 68 20 69 73 20 25 64 2e 0d 0a 00                 th is %d....

0000059e <__c.2589>:
     59e:	4c 69 73 74 65 6e 2e 2e 2e 0d 0a 00                 Listen......

000005aa <__c.2587>:
     5aa:	4c 69 73 74 65 6e 20 66 61 69 6c 75 72 65 21 0d     Listen failure!.
     5ba:	0a 00                                               ..

000005bc <__c.2585>:
     5bc:	52 65 61 64 79 20 4f 70 65 6e 2e 2e 2e 0d 0a 00     Ready Open......

000005cc <__c.2582>:
     5cc:	43 6c 69 65 6e 74 20 63 6c 6f 73 65 2e 0d 0a 00     Client close....

000005dc <__c.2578>:
     5dc:	47 65 74 20 25 64 20 62 79 74 65 20 66 72 6f 6d     Get %d byte from
     5ec:	20 53 6f 63 6b 2e 0d 0a 00                           Sock....

000005f5 <__c.2576>:
     5f5:	5d 20 63 6f 6e 6e 65 63 74 65 64 2e 0d 0a 00        ] connected....

00000604 <__c.2574>:
     604:	43 6c 69 65 6e 74 20 5b 00                          Client [.

0000060d <__c.2570>:
     60d:	43 68 61 6e 67 65 20 73 6f 63 6b 65 74 20 73 74     Change socket st
     61d:	61 74 65 20 25 30 32 58 2e 0d 0a 00                 ate %02X....

00000629 <__c.2566>:
     629:	53 74 61 74 75 73 20 25 64 20 2d 20 25 64 2e 0d     Status %d - %d..
     639:	0a 00                                               ..

0000063b <__c.2564>:
     63b:	5d 0d 0a 00                                         ]...

0000063f <__c.2562>:
     63f:	20 49 50 20 5b 00                                    IP [.

00000645 <__c.2560>:
     645:	5b 25 30 32 64 3a 25 30 32 64 3a 25 30 33 64 5d     [%02d:%02d:%03d]
	...

00000656 <cmdLength>:
     656:	00 01 01 00 00 00 00 00 00 00 00 00 00 00 00 00     ................
     666:	01 06 02 ff ff 02 00 00 00 00 00 00 00 00 00 00     ................
     676:	02 02 02 00 00 00 00 00 00 00 00 00 00 00 00 00     ................
     686:	02 02 02 05 04 00 00 00 00 00 00 00 00 00 00 00     ................
     696:	02 03 03 05 00 00 00 00 00 00 00 00 00 00 00 00     ................
     6a6:	00 00 02 00 00 00 00 00 00 00 00 00 00 00 00 00     ................
     6b6:	00 00 06 00 00 ff 00 00 00 00 00 00 00 00 00 00     ................
     6c6:	00 05 02 00 00 00 00 00 00 00 00 00 00 00 00 00     ................
     6d6:	00 05 02 00 00 00 00 00 00 00 00 00 00 00 00 00     ................
     6e6:	00 05 03 00 00 00 00 00 00 00 00 00 00 00 00 00     ................

000006f6 <szHelloc>:
     6f6:	49 6e 2f 4f 75 74 20 75 6e 69 74 20 6f 66 20 54     In/Out unit of T
     706:	72 61 69 6e 20 65 6c 65 63 74 72 69 63 20 53 69     rain electric Si
     716:	67 6e 61 6c 20 53 69 6d 75 6c 61 74 69 6f 6e 20     gnal Simulation 
     726:	53 79 73 74 65 6d 20 76 65 72 32 2e 31 20 20 00     System ver2.1  .

00000736 <szHelloB>:
     736:	43 6f 6d 6d 75 6e 69 63 61 74 69 6f 6e 20 75 6e     Communication un
     746:	69 74 20 6f 66 20 54 72 61 69 6e 20 65 6c 65 63     it of Train elec
     756:	74 72 69 63 20 53 69 67 6e 61 6c 20 53 69 6d 75     tric Signal Simu
     766:	6c 61 74 69 6f 6e 20 53 79 73 74 65 6d 20 76 65     lation System ve
     776:	72 32 2e 31 20 20 00                                r2.1  .

0000077d <szHelloA>:
     77d:	54 72 61 66 66 69 63 20 75 6e 69 74 20 6f 66 20     Traffic unit of 
     78d:	54 72 61 69 6e 20 65 6c 65 63 74 72 69 63 20 53     Train electric S
     79d:	69 67 6e 61 6c 20 53 69 6d 75 6c 61 74 69 6f 6e     ignal Simulation
     7ad:	20 53 79 73 74 65 6d 20 76 65 72 32 2e 31 20 20      System ver2.1  
	...

000007be <szMac>:
     7be:	00 08 dc 01 02 03                                   ......

000007c4 <__ctors_end>:
     7c4:	11 24       	eor	r1, r1
     7c6:	1f be       	out	0x3f, r1	; 63
     7c8:	cf ef       	ldi	r28, 0xFF	; 255
     7ca:	d0 e1       	ldi	r29, 0x10	; 16
     7cc:	de bf       	out	0x3e, r29	; 62
     7ce:	cd bf       	out	0x3d, r28	; 61

000007d0 <__do_copy_data>:
     7d0:	11 e0       	ldi	r17, 0x01	; 1
     7d2:	a0 e0       	ldi	r26, 0x00	; 0
     7d4:	b1 e0       	ldi	r27, 0x01	; 1
     7d6:	e6 e9       	ldi	r30, 0x96	; 150
     7d8:	f4 e3       	ldi	r31, 0x34	; 52
     7da:	00 e0       	ldi	r16, 0x00	; 0
     7dc:	0b bf       	out	0x3b, r16	; 59
     7de:	02 c0       	rjmp	.+4      	; 0x7e4 <__do_copy_data+0x14>
     7e0:	07 90       	elpm	r0, Z+
     7e2:	0d 92       	st	X+, r0
     7e4:	ae 30       	cpi	r26, 0x0E	; 14
     7e6:	b1 07       	cpc	r27, r17
     7e8:	d9 f7       	brne	.-10     	; 0x7e0 <__do_copy_data+0x10>

000007ea <__do_clear_bss>:
     7ea:	2e e0       	ldi	r18, 0x0E	; 14
     7ec:	ae e0       	ldi	r26, 0x0E	; 14
     7ee:	b1 e0       	ldi	r27, 0x01	; 1
     7f0:	01 c0       	rjmp	.+2      	; 0x7f4 <.do_clear_bss_start>

000007f2 <.do_clear_bss_loop>:
     7f2:	1d 92       	st	X+, r1

000007f4 <.do_clear_bss_start>:
     7f4:	ab 38       	cpi	r26, 0x8B	; 139
     7f6:	b2 07       	cpc	r27, r18
     7f8:	e1 f7       	brne	.-8      	; 0x7f2 <.do_clear_bss_loop>
     7fa:	0e 94 1a 10 	call	0x2034	; 0x2034 <main>
     7fe:	0c 94 49 1a 	jmp	0x3492	; 0x3492 <_exit>

00000802 <__bad_interrupt>:
     802:	fe cb       	rjmp	.-2052   	; 0x0 <__vectors>

00000804 <Crc16>:
     804:	cf 93       	push	r28
     806:	9c 01       	movw	r18, r24
     808:	dc 01       	movw	r26, r24
     80a:	80 e0       	ldi	r24, 0x00	; 0
     80c:	90 e0       	ldi	r25, 0x00	; 0
     80e:	ad 01       	movw	r20, r26
     810:	42 1b       	sub	r20, r18
     812:	53 0b       	sbc	r21, r19
     814:	46 17       	cp	r20, r22
     816:	57 07       	cpc	r21, r23
     818:	7c f4       	brge	.+30     	; 0x838 <Crc16+0x34>
     81a:	cd 91       	ld	r28, X+
     81c:	58 2f       	mov	r21, r24
     81e:	44 27       	eor	r20, r20
     820:	e9 2f       	mov	r30, r25
     822:	ff 27       	eor	r31, r31
     824:	ec 27       	eor	r30, r28
     826:	ee 0f       	add	r30, r30
     828:	ff 1f       	adc	r31, r31
     82a:	e2 5f       	subi	r30, 0xF2	; 242
     82c:	fe 4f       	sbci	r31, 0xFE	; 254
     82e:	85 91       	lpm	r24, Z+
     830:	94 91       	lpm	r25, Z
     832:	84 27       	eor	r24, r20
     834:	95 27       	eor	r25, r21
     836:	eb cf       	rjmp	.-42     	; 0x80e <Crc16+0xa>
     838:	cf 91       	pop	r28
     83a:	08 95       	ret

0000083c <InitialScc>:
     83c:	2f 92       	push	r2
     83e:	3f 92       	push	r3
     840:	4f 92       	push	r4
     842:	5f 92       	push	r5
     844:	6f 92       	push	r6
     846:	7f 92       	push	r7
     848:	8f 92       	push	r8
     84a:	9f 92       	push	r9
     84c:	af 92       	push	r10
     84e:	bf 92       	push	r11
     850:	cf 92       	push	r12
     852:	df 92       	push	r13
     854:	ef 92       	push	r14
     856:	ff 92       	push	r15
     858:	0f 93       	push	r16
     85a:	1f 93       	push	r17
     85c:	cf 93       	push	r28
     85e:	df 93       	push	r29
     860:	00 d0       	rcall	.+0      	; 0x862 <InitialScc+0x26>
     862:	00 d0       	rcall	.+0      	; 0x864 <InitialScc+0x28>
     864:	00 d0       	rcall	.+0      	; 0x866 <InitialScc+0x2a>
     866:	cd b7       	in	r28, 0x3d	; 61
     868:	de b7       	in	r29, 0x3e	; 62
     86a:	84 30       	cpi	r24, 0x04	; 4
     86c:	08 f0       	brcs	.+2      	; 0x870 <InitialScc+0x34>
     86e:	ee c0       	rjmp	.+476    	; 0xa4c <InitialScc+0x210>
     870:	48 2f       	mov	r20, r24
     872:	50 e0       	ldi	r21, 0x00	; 0
     874:	7a 01       	movw	r14, r20
     876:	ee 0c       	add	r14, r14
     878:	ff 1c       	adc	r15, r15
     87a:	c7 01       	movw	r24, r14
     87c:	01 96       	adiw	r24, 0x01	; 1
     87e:	2a e0       	ldi	r18, 0x0A	; 10
     880:	31 e0       	ldi	r19, 0x01	; 1
     882:	82 9f       	mul	r24, r18
     884:	f0 01       	movw	r30, r0
     886:	83 9f       	mul	r24, r19
     888:	f0 0d       	add	r31, r0
     88a:	92 9f       	mul	r25, r18
     88c:	f0 0d       	add	r31, r0
     88e:	11 24       	eor	r1, r1
     890:	ee 5e       	subi	r30, 0xEE	; 238
     892:	fe 4f       	sbci	r31, 0xFE	; 254
     894:	20 81       	ld	r18, Z
     896:	22 95       	swap	r18
     898:	23 70       	andi	r18, 0x03	; 3
     89a:	23 30       	cpi	r18, 0x03	; 3
     89c:	29 f4       	brne	.+10     	; 0x8a8 <InitialScc+0x6c>
     89e:	70 e1       	ldi	r23, 0x10	; 16
     8a0:	27 2e       	mov	r2, r23
     8a2:	73 e0       	ldi	r23, 0x03	; 3
     8a4:	37 2e       	mov	r3, r23
     8a6:	04 c0       	rjmp	.+8      	; 0x8b0 <InitialScc+0x74>
     8a8:	64 e4       	ldi	r22, 0x44	; 68
     8aa:	26 2e       	mov	r2, r22
     8ac:	63 e0       	ldi	r22, 0x03	; 3
     8ae:	36 2e       	mov	r3, r22
     8b0:	54 2f       	mov	r21, r20
     8b2:	44 27       	eor	r20, r20
     8b4:	fa 01       	movw	r30, r20
     8b6:	ef 5f       	subi	r30, 0xFF	; 255
     8b8:	ff 4d       	sbci	r31, 0xDF	; 223
     8ba:	39 e0       	ldi	r19, 0x09	; 9
     8bc:	30 83       	st	Z, r19
     8be:	20 ec       	ldi	r18, 0xC0	; 192
     8c0:	20 83       	st	Z, r18
     8c2:	ba 01       	movw	r22, r20
     8c4:	70 5e       	subi	r23, 0xE0	; 224
     8c6:	7e 83       	std	Y+6, r23	; 0x06
     8c8:	6d 83       	std	Y+5, r22	; 0x05
     8ca:	db 01       	movw	r26, r22
     8cc:	3c 93       	st	X, r19
     8ce:	2c 93       	st	X, r18
     8d0:	4a e0       	ldi	r20, 0x0A	; 10
     8d2:	51 e0       	ldi	r21, 0x01	; 1
     8d4:	e4 9e       	mul	r14, r20
     8d6:	90 01       	movw	r18, r0
     8d8:	e5 9e       	mul	r14, r21
     8da:	30 0d       	add	r19, r0
     8dc:	f4 9e       	mul	r15, r20
     8de:	30 0d       	add	r19, r0
     8e0:	11 24       	eor	r1, r1
     8e2:	f9 01       	movw	r30, r18
     8e4:	e2 5f       	subi	r30, 0xF2	; 242
     8e6:	fe 4f       	sbci	r31, 0xFE	; 254
     8e8:	6f 01       	movw	r12, r30
     8ea:	51 2c       	mov	r5, r1
     8ec:	44 24       	eor	r4, r4
     8ee:	43 94       	inc	r4
     8f0:	3a e0       	ldi	r19, 0x0A	; 10
     8f2:	a3 2e       	mov	r10, r19
     8f4:	bb 24       	eor	r11, r11
     8f6:	b3 94       	inc	r11
     8f8:	8a 9d       	mul	r24, r10
     8fa:	90 01       	movw	r18, r0
     8fc:	8b 9d       	mul	r24, r11
     8fe:	30 0d       	add	r19, r0
     900:	9a 9d       	mul	r25, r10
     902:	30 0d       	add	r19, r0
     904:	11 24       	eor	r1, r1
     906:	a9 01       	movw	r20, r18
     908:	4e 5e       	subi	r20, 0xEE	; 238
     90a:	5e 4f       	sbci	r21, 0xFE	; 254
     90c:	5c 83       	std	Y+4, r21	; 0x04
     90e:	4b 83       	std	Y+3, r20	; 0x03
     910:	31 01       	movw	r6, r2
     912:	85 2d       	mov	r24, r5
     914:	84 25       	eor	r24, r4
     916:	0d 81       	ldd	r16, Y+5	; 0x05
     918:	1e 81       	ldd	r17, Y+6	; 0x06
     91a:	08 0f       	add	r16, r24
     91c:	11 1d       	adc	r17, r1
     91e:	ea 9c       	mul	r14, r10
     920:	c0 01       	movw	r24, r0
     922:	eb 9c       	mul	r14, r11
     924:	90 0d       	add	r25, r0
     926:	fa 9c       	mul	r15, r10
     928:	90 0d       	add	r25, r0
     92a:	11 24       	eor	r1, r1
     92c:	bc 01       	movw	r22, r24
     92e:	6e 5e       	subi	r22, 0xEE	; 238
     930:	7e 4f       	sbci	r23, 0xFE	; 254
     932:	7a 83       	std	Y+2, r23	; 0x02
     934:	69 83       	std	Y+1, r22	; 0x01
     936:	c3 01       	movw	r24, r6
     938:	01 96       	adiw	r24, 0x01	; 1
     93a:	f3 01       	movw	r30, r6
     93c:	24 91       	lpm	r18, Z
     93e:	2f 3f       	cpi	r18, 0xFF	; 255
     940:	09 f4       	brne	.+2      	; 0x944 <InitialScc+0x108>
     942:	77 c0       	rjmp	.+238    	; 0xa32 <InitialScc+0x1f6>
     944:	43 01       	movw	r8, r6
     946:	72 e0       	ldi	r23, 0x02	; 2
     948:	87 0e       	add	r8, r23
     94a:	91 1c       	adc	r9, r1
     94c:	fc 01       	movw	r30, r24
     94e:	94 91       	lpm	r25, Z
     950:	26 30       	cpi	r18, 0x06	; 6
     952:	39 f5       	brne	.+78     	; 0x9a2 <InitialScc+0x166>
     954:	ab 81       	ldd	r26, Y+3	; 0x03
     956:	bc 81       	ldd	r27, Y+4	; 0x04
     958:	8c 91       	ld	r24, X
     95a:	82 95       	swap	r24
     95c:	83 70       	andi	r24, 0x03	; 3
     95e:	83 30       	cpi	r24, 0x03	; 3
     960:	09 f0       	breq	.+2      	; 0x964 <InitialScc+0x128>
     962:	4d c0       	rjmp	.+154    	; 0x9fe <InitialScc+0x1c2>
     964:	f8 01       	movw	r30, r16
     966:	20 83       	st	Z, r18
     968:	d6 01       	movw	r26, r12
     96a:	12 96       	adiw	r26, 0x02	; 2
     96c:	8c 91       	ld	r24, X
     96e:	12 97       	sbiw	r26, 0x02	; 2
     970:	80 83       	st	Z, r24
     972:	80 91 68 0b 	lds	r24, 0x0B68
     976:	88 71       	andi	r24, 0x18	; 24
     978:	88 31       	cpi	r24, 0x18	; 24
     97a:	09 f0       	breq	.+2      	; 0x97e <InitialScc+0x142>
     97c:	58 c0       	rjmp	.+176    	; 0xa2e <InitialScc+0x1f2>
     97e:	12 96       	adiw	r26, 0x02	; 2
     980:	8d 91       	ld	r24, X+
     982:	9c 91       	ld	r25, X
     984:	13 97       	sbiw	r26, 0x03	; 3
     986:	99 27       	eor	r25, r25
     988:	9f 93       	push	r25
     98a:	8f 93       	push	r24
     98c:	ab ea       	ldi	r26, 0xAB	; 171
     98e:	b0 e0       	ldi	r27, 0x00	; 0
     990:	bf 93       	push	r27
     992:	af 93       	push	r26
     994:	0e 94 88 17 	call	0x2f10	; 0x2f10 <printf_P>
     998:	0f 90       	pop	r0
     99a:	0f 90       	pop	r0
     99c:	0f 90       	pop	r0
     99e:	0f 90       	pop	r0
     9a0:	46 c0       	rjmp	.+140    	; 0xa2e <InitialScc+0x1f2>
     9a2:	2c 30       	cpi	r18, 0x0C	; 12
     9a4:	61 f5       	brne	.+88     	; 0x9fe <InitialScc+0x1c2>
     9a6:	a9 81       	ldd	r26, Y+1	; 0x01
     9a8:	ba 81       	ldd	r27, Y+2	; 0x02
     9aa:	ec 91       	ld	r30, X
     9ac:	ef 70       	andi	r30, 0x0F	; 15
     9ae:	f0 e0       	ldi	r31, 0x00	; 0
     9b0:	ee 0f       	add	r30, r30
     9b2:	ff 1f       	adc	r31, r31
     9b4:	ec 59       	subi	r30, 0x9C	; 156
     9b6:	fc 4f       	sbci	r31, 0xFC	; 252
     9b8:	85 91       	lpm	r24, Z+
     9ba:	94 91       	lpm	r25, Z
     9bc:	f8 01       	movw	r30, r16
     9be:	20 83       	st	Z, r18
     9c0:	80 83       	st	Z, r24
     9c2:	2d e0       	ldi	r18, 0x0D	; 13
     9c4:	20 83       	st	Z, r18
     9c6:	90 83       	st	Z, r25
     9c8:	20 91 68 0b 	lds	r18, 0x0B68
     9cc:	28 71       	andi	r18, 0x18	; 24
     9ce:	28 31       	cpi	r18, 0x18	; 24
     9d0:	89 f4       	brne	.+34     	; 0x9f4 <InitialScc+0x1b8>
     9d2:	1f 92       	push	r1
     9d4:	9f 93       	push	r25
     9d6:	99 27       	eor	r25, r25
     9d8:	9f 93       	push	r25
     9da:	8f 93       	push	r24
     9dc:	a8 e9       	ldi	r26, 0x98	; 152
     9de:	b0 e0       	ldi	r27, 0x00	; 0
     9e0:	bf 93       	push	r27
     9e2:	af 93       	push	r26
     9e4:	0e 94 88 17 	call	0x2f10	; 0x2f10 <printf_P>
     9e8:	0f 90       	pop	r0
     9ea:	0f 90       	pop	r0
     9ec:	0f 90       	pop	r0
     9ee:	0f 90       	pop	r0
     9f0:	0f 90       	pop	r0
     9f2:	0f 90       	pop	r0
     9f4:	43 01       	movw	r8, r6
     9f6:	f4 e0       	ldi	r31, 0x04	; 4
     9f8:	8f 0e       	add	r8, r31
     9fa:	91 1c       	adc	r9, r1
     9fc:	18 c0       	rjmp	.+48     	; 0xa2e <InitialScc+0x1f2>
     9fe:	d8 01       	movw	r26, r16
     a00:	2c 93       	st	X, r18
     a02:	9c 93       	st	X, r25
     a04:	80 91 68 0b 	lds	r24, 0x0B68
     a08:	88 71       	andi	r24, 0x18	; 24
     a0a:	88 31       	cpi	r24, 0x18	; 24
     a0c:	81 f4       	brne	.+32     	; 0xa2e <InitialScc+0x1f2>
     a0e:	1f 92       	push	r1
     a10:	9f 93       	push	r25
     a12:	1f 92       	push	r1
     a14:	2f 93       	push	r18
     a16:	ac e8       	ldi	r26, 0x8C	; 140
     a18:	b0 e0       	ldi	r27, 0x00	; 0
     a1a:	bf 93       	push	r27
     a1c:	af 93       	push	r26
     a1e:	0e 94 88 17 	call	0x2f10	; 0x2f10 <printf_P>
     a22:	0f 90       	pop	r0
     a24:	0f 90       	pop	r0
     a26:	0f 90       	pop	r0
     a28:	0f 90       	pop	r0
     a2a:	0f 90       	pop	r0
     a2c:	0f 90       	pop	r0
     a2e:	34 01       	movw	r6, r8
     a30:	82 cf       	rjmp	.-252    	; 0x936 <InitialScc+0xfa>
     a32:	f6 ef       	ldi	r31, 0xF6	; 246
     a34:	cf 1a       	sub	r12, r31
     a36:	fe ef       	ldi	r31, 0xFE	; 254
     a38:	df 0a       	sbc	r13, r31
     a3a:	2f ef       	ldi	r18, 0xFF	; 255
     a3c:	e2 1a       	sub	r14, r18
     a3e:	f2 0a       	sbc	r15, r18
     a40:	31 e0       	ldi	r19, 0x01	; 1
     a42:	53 16       	cp	r5, r19
     a44:	19 f0       	breq	.+6      	; 0xa4c <InitialScc+0x210>
     a46:	55 24       	eor	r5, r5
     a48:	53 94       	inc	r5
     a4a:	62 cf       	rjmp	.-316    	; 0x910 <InitialScc+0xd4>
     a4c:	26 96       	adiw	r28, 0x06	; 6
     a4e:	0f b6       	in	r0, 0x3f	; 63
     a50:	f8 94       	cli
     a52:	de bf       	out	0x3e, r29	; 62
     a54:	0f be       	out	0x3f, r0	; 63
     a56:	cd bf       	out	0x3d, r28	; 61
     a58:	df 91       	pop	r29
     a5a:	cf 91       	pop	r28
     a5c:	1f 91       	pop	r17
     a5e:	0f 91       	pop	r16
     a60:	ff 90       	pop	r15
     a62:	ef 90       	pop	r14
     a64:	df 90       	pop	r13
     a66:	cf 90       	pop	r12
     a68:	bf 90       	pop	r11
     a6a:	af 90       	pop	r10
     a6c:	9f 90       	pop	r9
     a6e:	8f 90       	pop	r8
     a70:	7f 90       	pop	r7
     a72:	6f 90       	pop	r6
     a74:	5f 90       	pop	r5
     a76:	4f 90       	pop	r4
     a78:	3f 90       	pop	r3
     a7a:	2f 90       	pop	r2
     a7c:	08 95       	ret

00000a7e <InitialChannels>:
     a7e:	2f 92       	push	r2
     a80:	3f 92       	push	r3
     a82:	4f 92       	push	r4
     a84:	5f 92       	push	r5
     a86:	6f 92       	push	r6
     a88:	7f 92       	push	r7
     a8a:	8f 92       	push	r8
     a8c:	9f 92       	push	r9
     a8e:	af 92       	push	r10
     a90:	bf 92       	push	r11
     a92:	cf 92       	push	r12
     a94:	df 92       	push	r13
     a96:	ef 92       	push	r14
     a98:	ff 92       	push	r15
     a9a:	0f 93       	push	r16
     a9c:	1f 93       	push	r17
     a9e:	cf 93       	push	r28
     aa0:	df 93       	push	r29
     aa2:	28 2e       	mov	r2, r24
     aa4:	31 2c       	mov	r3, r1
     aa6:	1f 92       	push	r1
     aa8:	8f 93       	push	r24
     aaa:	83 ef       	ldi	r24, 0xF3	; 243
     aac:	90 e0       	ldi	r25, 0x00	; 0
     aae:	9f 93       	push	r25
     ab0:	8f 93       	push	r24
     ab2:	0e 94 88 17 	call	0x2f10	; 0x2f10 <printf_P>
     ab6:	0f e0       	ldi	r16, 0x0F	; 15
     ab8:	11 e0       	ldi	r17, 0x01	; 1
     aba:	93 e0       	ldi	r25, 0x03	; 3
     abc:	22 0c       	add	r2, r2
     abe:	33 1c       	adc	r3, r3
     ac0:	9a 95       	dec	r25
     ac2:	e1 f7       	brne	.-8      	; 0xabc <InitialChannels+0x3e>
     ac4:	0f 90       	pop	r0
     ac6:	0f 90       	pop	r0
     ac8:	0f 90       	pop	r0
     aca:	0f 90       	pop	r0
     acc:	61 2c       	mov	r6, r1
     ace:	71 2c       	mov	r7, r1
     ad0:	2c ee       	ldi	r18, 0xEC	; 236
     ad2:	42 2e       	mov	r4, r18
     ad4:	20 e0       	ldi	r18, 0x00	; 0
     ad6:	52 2e       	mov	r5, r18
     ad8:	3d ed       	ldi	r19, 0xDD	; 221
     ada:	e3 2e       	mov	r14, r19
     adc:	30 e0       	ldi	r19, 0x00	; 0
     ade:	f3 2e       	mov	r15, r19
     ae0:	40 ed       	ldi	r20, 0xD0	; 208
     ae2:	c4 2e       	mov	r12, r20
     ae4:	40 e0       	ldi	r20, 0x00	; 0
     ae6:	d4 2e       	mov	r13, r20
     ae8:	53 ec       	ldi	r21, 0xC3	; 195
     aea:	a5 2e       	mov	r10, r21
     aec:	50 e0       	ldi	r21, 0x00	; 0
     aee:	b5 2e       	mov	r11, r21
     af0:	65 eb       	ldi	r22, 0xB5	; 181
     af2:	86 2e       	mov	r8, r22
     af4:	60 e0       	ldi	r22, 0x00	; 0
     af6:	96 2e       	mov	r9, r22
     af8:	7f 92       	push	r7
     afa:	6f 92       	push	r6
     afc:	5f 92       	push	r5
     afe:	4f 92       	push	r4
     b00:	0e 94 88 17 	call	0x2f10	; 0x2f10 <printf_P>
     b04:	f3 01       	movw	r30, r6
     b06:	e2 0d       	add	r30, r2
     b08:	f3 1d       	adc	r31, r3
     b0a:	e0 51       	subi	r30, 0x10	; 16
     b0c:	fc 4f       	sbci	r31, 0xFC	; 252
     b0e:	e4 91       	lpm	r30, Z
     b10:	ce 2f       	mov	r28, r30
     b12:	d0 e0       	ldi	r29, 0x00	; 0
     b14:	1f 92       	push	r1
     b16:	ef 93       	push	r30
     b18:	ff 92       	push	r15
     b1a:	ef 92       	push	r14
     b1c:	0e 94 88 17 	call	0x2f10	; 0x2f10 <printf_P>
     b20:	83 e0       	ldi	r24, 0x03	; 3
     b22:	cc 0f       	add	r28, r28
     b24:	dd 1f       	adc	r29, r29
     b26:	8a 95       	dec	r24
     b28:	e1 f7       	brne	.-8      	; 0xb22 <InitialChannels+0xa4>
     b2a:	fe 01       	movw	r30, r28
     b2c:	e0 58       	subi	r30, 0x80	; 128
     b2e:	fc 4f       	sbci	r31, 0xFC	; 252
     b30:	85 91       	lpm	r24, Z+
     b32:	94 91       	lpm	r25, Z
     b34:	f8 01       	movw	r30, r16
     b36:	80 83       	st	Z, r24
     b38:	99 27       	eor	r25, r25
     b3a:	9f 93       	push	r25
     b3c:	8f 93       	push	r24
     b3e:	df 92       	push	r13
     b40:	cf 92       	push	r12
     b42:	0e 94 88 17 	call	0x2f10	; 0x2f10 <printf_P>
     b46:	fe 01       	movw	r30, r28
     b48:	ee 57       	subi	r30, 0x7E	; 126
     b4a:	fc 4f       	sbci	r31, 0xFC	; 252
     b4c:	85 91       	lpm	r24, Z+
     b4e:	94 91       	lpm	r25, Z
     b50:	f8 01       	movw	r30, r16
     b52:	81 83       	std	Z+1, r24	; 0x01
     b54:	92 83       	std	Z+2, r25	; 0x02
     b56:	9f 93       	push	r25
     b58:	8f 93       	push	r24
     b5a:	bf 92       	push	r11
     b5c:	af 92       	push	r10
     b5e:	0e 94 88 17 	call	0x2f10	; 0x2f10 <printf_P>
     b62:	fe 01       	movw	r30, r28
     b64:	ec 57       	subi	r30, 0x7C	; 124
     b66:	fc 4f       	sbci	r31, 0xFC	; 252
     b68:	85 91       	lpm	r24, Z+
     b6a:	94 91       	lpm	r25, Z
     b6c:	f8 01       	movw	r30, r16
     b6e:	83 83       	std	Z+3, r24	; 0x03
     b70:	99 27       	eor	r25, r25
     b72:	9f 93       	push	r25
     b74:	8f 93       	push	r24
     b76:	9f 92       	push	r9
     b78:	8f 92       	push	r8
     b7a:	0e 94 88 17 	call	0x2f10	; 0x2f10 <printf_P>
     b7e:	8d b7       	in	r24, 0x3d	; 61
     b80:	9e b7       	in	r25, 0x3e	; 62
     b82:	44 96       	adiw	r24, 0x14	; 20
     b84:	0f b6       	in	r0, 0x3f	; 63
     b86:	f8 94       	cli
     b88:	9e bf       	out	0x3e, r25	; 62
     b8a:	0f be       	out	0x3f, r0	; 63
     b8c:	8d bf       	out	0x3d, r24	; 61
     b8e:	60 fe       	sbrs	r6, 0
     b90:	03 c0       	rjmp	.+6      	; 0xb98 <InitialChannels+0x11a>
     b92:	86 2d       	mov	r24, r6
     b94:	86 95       	lsr	r24
     b96:	52 de       	rcall	.-860    	; 0x83c <InitialScc>
     b98:	9f ef       	ldi	r25, 0xFF	; 255
     b9a:	69 1a       	sub	r6, r25
     b9c:	79 0a       	sbc	r7, r25
     b9e:	06 5f       	subi	r16, 0xF6	; 246
     ba0:	1e 4f       	sbci	r17, 0xFE	; 254
     ba2:	e8 e0       	ldi	r30, 0x08	; 8
     ba4:	6e 16       	cp	r6, r30
     ba6:	71 04       	cpc	r7, r1
     ba8:	09 f0       	breq	.+2      	; 0xbac <InitialChannels+0x12e>
     baa:	a6 cf       	rjmp	.-180    	; 0xaf8 <InitialChannels+0x7a>
     bac:	df 91       	pop	r29
     bae:	cf 91       	pop	r28
     bb0:	1f 91       	pop	r17
     bb2:	0f 91       	pop	r16
     bb4:	ff 90       	pop	r15
     bb6:	ef 90       	pop	r14
     bb8:	df 90       	pop	r13
     bba:	cf 90       	pop	r12
     bbc:	bf 90       	pop	r11
     bbe:	af 90       	pop	r10
     bc0:	9f 90       	pop	r9
     bc2:	8f 90       	pop	r8
     bc4:	7f 90       	pop	r7
     bc6:	6f 90       	pop	r6
     bc8:	5f 90       	pop	r5
     bca:	4f 90       	pop	r4
     bcc:	3f 90       	pop	r3
     bce:	2f 90       	pop	r2
     bd0:	08 95       	ret

00000bd2 <GetSccBuf>:
     bd2:	2a e0       	ldi	r18, 0x0A	; 10
     bd4:	31 e0       	ldi	r19, 0x01	; 1
     bd6:	48 2f       	mov	r20, r24
     bd8:	42 9f       	mul	r20, r18
     bda:	c0 01       	movw	r24, r0
     bdc:	43 9f       	mul	r20, r19
     bde:	90 0d       	add	r25, r0
     be0:	11 24       	eor	r1, r1
     be2:	81 5f       	subi	r24, 0xF1	; 241
     be4:	9e 4f       	sbci	r25, 0xFE	; 254
     be6:	08 95       	ret

00000be8 <SendScc>:
     be8:	cf 93       	push	r28
     bea:	df 93       	push	r29
     bec:	28 2f       	mov	r18, r24
     bee:	30 e0       	ldi	r19, 0x00	; 0
     bf0:	4a e0       	ldi	r20, 0x0A	; 10
     bf2:	51 e0       	ldi	r21, 0x01	; 1
     bf4:	24 9f       	mul	r18, r20
     bf6:	f0 01       	movw	r30, r0
     bf8:	25 9f       	mul	r18, r21
     bfa:	f0 0d       	add	r31, r0
     bfc:	34 9f       	mul	r19, r20
     bfe:	f0 0d       	add	r31, r0
     c00:	11 24       	eor	r1, r1
     c02:	e1 5f       	subi	r30, 0xF1	; 241
     c04:	fe 4f       	sbci	r31, 0xFE	; 254
     c06:	93 81       	ldd	r25, Z+3	; 0x03
     c08:	90 73       	andi	r25, 0x30	; 48
     c0a:	e8 2f       	mov	r30, r24
     c0c:	e6 95       	lsr	r30
     c0e:	81 70       	andi	r24, 0x01	; 1
     c10:	ae 2f       	mov	r26, r30
     c12:	b0 e0       	ldi	r27, 0x00	; 0
     c14:	ba 2f       	mov	r27, r26
     c16:	aa 27       	eor	r26, r26
     c18:	b0 5e       	subi	r27, 0xE0	; 224
     c1a:	90 33       	cpi	r25, 0x30	; 48
     c1c:	41 f0       	breq	.+16     	; 0xc2e <SendScc+0x46>
     c1e:	91 e0       	ldi	r25, 0x01	; 1
     c20:	98 27       	eor	r25, r24
     c22:	a9 0f       	add	r26, r25
     c24:	b1 1d       	adc	r27, r1
     c26:	95 e0       	ldi	r25, 0x05	; 5
     c28:	9c 93       	st	X, r25
     c2a:	98 e6       	ldi	r25, 0x68	; 104
     c2c:	07 c0       	rjmp	.+14     	; 0xc3c <SendScc+0x54>
     c2e:	91 e0       	ldi	r25, 0x01	; 1
     c30:	98 27       	eor	r25, r24
     c32:	a9 0f       	add	r26, r25
     c34:	b1 1d       	adc	r27, r1
     c36:	95 e0       	ldi	r25, 0x05	; 5
     c38:	9c 93       	st	X, r25
     c3a:	99 e6       	ldi	r25, 0x69	; 105
     c3c:	9c 93       	st	X, r25
     c3e:	f8 94       	cli
     c40:	4a e0       	ldi	r20, 0x0A	; 10
     c42:	51 e0       	ldi	r21, 0x01	; 1
     c44:	24 9f       	mul	r18, r20
     c46:	d0 01       	movw	r26, r0
     c48:	25 9f       	mul	r18, r21
     c4a:	b0 0d       	add	r27, r0
     c4c:	34 9f       	mul	r19, r20
     c4e:	b0 0d       	add	r27, r0
     c50:	11 24       	eor	r1, r1
     c52:	a2 5f       	subi	r26, 0xF2	; 242
     c54:	be 4f       	sbci	r27, 0xFE	; 254
     c56:	ed 01       	movw	r28, r26
     c58:	cb 57       	subi	r28, 0x7B	; 123
     c5a:	df 4f       	sbci	r29, 0xFF	; 255
     c5c:	91 e0       	ldi	r25, 0x01	; 1
     c5e:	98 83       	st	Y, r25
     c60:	f0 e0       	ldi	r31, 0x00	; 0
     c62:	fe 2f       	mov	r31, r30
     c64:	ee 27       	eor	r30, r30
     c66:	f0 5e       	subi	r31, 0xE0	; 224
     c68:	89 27       	eor	r24, r25
     c6a:	e8 0f       	add	r30, r24
     c6c:	f1 1d       	adc	r31, r1
     c6e:	15 96       	adiw	r26, 0x05	; 5
     c70:	8c 91       	ld	r24, X
     c72:	82 83       	std	Z+2, r24	; 0x02
     c74:	78 94       	sei
     c76:	df 91       	pop	r29
     c78:	cf 91       	pop	r28
     c7a:	08 95       	ret

00000c7c <ScanScc>:
     c7c:	af 92       	push	r10
     c7e:	bf 92       	push	r11
     c80:	cf 92       	push	r12
     c82:	df 92       	push	r13
     c84:	ef 92       	push	r14
     c86:	ff 92       	push	r15
     c88:	0f 93       	push	r16
     c8a:	1f 93       	push	r17
     c8c:	cf 93       	push	r28
     c8e:	df 93       	push	r29
     c90:	81 b1       	in	r24, 0x01	; 1
     c92:	93 b1       	in	r25, 0x03	; 3
     c94:	89 23       	and	r24, r25
     c96:	8b 7f       	andi	r24, 0xFB	; 251
     c98:	83 b9       	out	0x03, r24	; 3
     c9a:	e8 e1       	ldi	r30, 0x18	; 24
     c9c:	f2 e0       	ldi	r31, 0x02	; 2
     c9e:	a7 e1       	ldi	r26, 0x17	; 23
     ca0:	b2 e0       	ldi	r27, 0x02	; 2
     ca2:	20 e0       	ldi	r18, 0x00	; 0
     ca4:	30 e0       	ldi	r19, 0x00	; 0
     ca6:	4a e0       	ldi	r20, 0x0A	; 10
     ca8:	51 e0       	ldi	r21, 0x01	; 1
     caa:	11 e0       	ldi	r17, 0x01	; 1
     cac:	05 e0       	ldi	r16, 0x05	; 5
     cae:	8b e6       	ldi	r24, 0x6B	; 107
     cb0:	e8 2e       	mov	r14, r24
     cb2:	92 e0       	ldi	r25, 0x02	; 2
     cb4:	d9 2e       	mov	r13, r25
     cb6:	6a e6       	ldi	r22, 0x6A	; 106
     cb8:	c6 2e       	mov	r12, r22
     cba:	61 e0       	ldi	r22, 0x01	; 1
     cbc:	70 e0       	ldi	r23, 0x00	; 0
     cbe:	b2 2e       	mov	r11, r18
     cc0:	82 2f       	mov	r24, r18
     cc2:	8e 7f       	andi	r24, 0xFE	; 254
     cc4:	90 e0       	ldi	r25, 0x00	; 0
     cc6:	01 96       	adiw	r24, 0x01	; 1
     cc8:	84 9f       	mul	r24, r20
     cca:	e0 01       	movw	r28, r0
     ccc:	85 9f       	mul	r24, r21
     cce:	d0 0d       	add	r29, r0
     cd0:	94 9f       	mul	r25, r20
     cd2:	d0 0d       	add	r29, r0
     cd4:	11 24       	eor	r1, r1
     cd6:	ce 5e       	subi	r28, 0xEE	; 238
     cd8:	de 4f       	sbci	r29, 0xFE	; 254
     cda:	c8 81       	ld	r28, Y
     cdc:	c2 95       	swap	r28
     cde:	c3 70       	andi	r28, 0x03	; 3
     ce0:	c3 30       	cpi	r28, 0x03	; 3
     ce2:	29 f0       	breq	.+10     	; 0xcee <ScanScc+0x72>
     ce4:	cc 91       	ld	r28, X
     ce6:	cc 23       	and	r28, r28
     ce8:	11 f0       	breq	.+4      	; 0xcee <ScanScc+0x72>
     cea:	c1 50       	subi	r28, 0x01	; 1
     cec:	cc 93       	st	X, r28
     cee:	f2 2e       	mov	r15, r18
     cf0:	ef 01       	movw	r28, r30
     cf2:	c3 58       	subi	r28, 0x83	; 131
     cf4:	d1 09       	sbc	r29, r1
     cf6:	a8 80       	ld	r10, Y
     cf8:	aa 20       	and	r10, r10
     cfa:	71 f1       	breq	.+92     	; 0xd58 <ScanScc+0xdc>
     cfc:	aa 94       	dec	r10
     cfe:	a8 82       	st	Y, r10
     d00:	a1 10       	cpse	r10, r1
     d02:	2a c0       	rjmp	.+84     	; 0xd58 <ScanScc+0xdc>
     d04:	84 9f       	mul	r24, r20
     d06:	e0 01       	movw	r28, r0
     d08:	85 9f       	mul	r24, r21
     d0a:	d0 0d       	add	r29, r0
     d0c:	94 9f       	mul	r25, r20
     d0e:	d0 0d       	add	r29, r0
     d10:	11 24       	eor	r1, r1
     d12:	ce 5e       	subi	r28, 0xEE	; 238
     d14:	de 4f       	sbci	r29, 0xFE	; 254
     d16:	98 81       	ld	r25, Y
     d18:	92 95       	swap	r25
     d1a:	93 70       	andi	r25, 0x03	; 3
     d1c:	8b 2d       	mov	r24, r11
     d1e:	86 95       	lsr	r24
     d20:	cb 2d       	mov	r28, r11
     d22:	c1 70       	andi	r28, 0x01	; 1
     d24:	93 30       	cpi	r25, 0x03	; 3
     d26:	69 f0       	breq	.+26     	; 0xd42 <ScanScc+0xc6>
     d28:	dc 92       	st	X, r13
     d2a:	90 e0       	ldi	r25, 0x00	; 0
     d2c:	98 2f       	mov	r25, r24
     d2e:	88 27       	eor	r24, r24
     d30:	90 5e       	subi	r25, 0xE0	; 224
     d32:	c1 27       	eor	r28, r17
     d34:	5c 01       	movw	r10, r24
     d36:	ac 0e       	add	r10, r28
     d38:	b1 1c       	adc	r11, r1
     d3a:	e5 01       	movw	r28, r10
     d3c:	08 83       	st	Y, r16
     d3e:	c8 82       	st	Y, r12
     d40:	0b c0       	rjmp	.+22     	; 0xd58 <ScanScc+0xdc>
     d42:	90 e0       	ldi	r25, 0x00	; 0
     d44:	98 2f       	mov	r25, r24
     d46:	88 27       	eor	r24, r24
     d48:	90 5e       	subi	r25, 0xE0	; 224
     d4a:	c1 27       	eor	r28, r17
     d4c:	5c 01       	movw	r10, r24
     d4e:	ac 0e       	add	r10, r28
     d50:	b1 1c       	adc	r11, r1
     d52:	e5 01       	movw	r28, r10
     d54:	08 83       	st	Y, r16
     d56:	e8 82       	st	Y, r14
     d58:	b0 90 0e 01 	lds	r11, 0x010E
     d5c:	cb 2d       	mov	r28, r11
     d5e:	d0 e0       	ldi	r29, 0x00	; 0
     d60:	0f 2c       	mov	r0, r15
     d62:	02 c0       	rjmp	.+4      	; 0xd68 <ScanScc+0xec>
     d64:	d5 95       	asr	r29
     d66:	c7 95       	ror	r28
     d68:	0a 94       	dec	r0
     d6a:	e2 f7       	brpl	.-8      	; 0xd64 <ScanScc+0xe8>
     d6c:	c0 fd       	sbrc	r28, 0
     d6e:	14 c0       	rjmp	.+40     	; 0xd98 <ScanScc+0x11c>
     d70:	ef 01       	movw	r28, r30
     d72:	22 97       	sbiw	r28, 0x02	; 2
     d74:	88 81       	ld	r24, Y
     d76:	88 23       	and	r24, r24
     d78:	79 f0       	breq	.+30     	; 0xd98 <ScanScc+0x11c>
     d7a:	80 81       	ld	r24, Z
     d7c:	88 23       	and	r24, r24
     d7e:	61 f0       	breq	.+24     	; 0xd98 <ScanScc+0x11c>
     d80:	81 50       	subi	r24, 0x01	; 1
     d82:	80 83       	st	Z, r24
     d84:	81 11       	cpse	r24, r1
     d86:	08 c0       	rjmp	.+16     	; 0xd98 <ScanScc+0x11c>
     d88:	cb 01       	movw	r24, r22
     d8a:	01 c0       	rjmp	.+2      	; 0xd8e <ScanScc+0x112>
     d8c:	88 0f       	add	r24, r24
     d8e:	fa 94       	dec	r15
     d90:	ea f7       	brpl	.-6      	; 0xd8c <ScanScc+0x110>
     d92:	8b 29       	or	r24, r11
     d94:	80 93 0e 01 	sts	0x010E, r24
     d98:	2f 5f       	subi	r18, 0xFF	; 255
     d9a:	3f 4f       	sbci	r19, 0xFF	; 255
     d9c:	e6 5f       	subi	r30, 0xF6	; 246
     d9e:	fe 4f       	sbci	r31, 0xFE	; 254
     da0:	a6 5f       	subi	r26, 0xF6	; 246
     da2:	be 4f       	sbci	r27, 0xFE	; 254
     da4:	28 30       	cpi	r18, 0x08	; 8
     da6:	31 05       	cpc	r19, r1
     da8:	09 f0       	breq	.+2      	; 0xdac <ScanScc+0x130>
     daa:	89 cf       	rjmp	.-238    	; 0xcbe <ScanScc+0x42>
     dac:	81 b1       	in	r24, 0x01	; 1
     dae:	93 b1       	in	r25, 0x03	; 3
     db0:	84 60       	ori	r24, 0x04	; 4
     db2:	89 2b       	or	r24, r25
     db4:	83 b9       	out	0x03, r24	; 3
     db6:	df 91       	pop	r29
     db8:	cf 91       	pop	r28
     dba:	1f 91       	pop	r17
     dbc:	0f 91       	pop	r16
     dbe:	ff 90       	pop	r15
     dc0:	ef 90       	pop	r14
     dc2:	df 90       	pop	r13
     dc4:	cf 90       	pop	r12
     dc6:	bf 90       	pop	r11
     dc8:	af 90       	pop	r10
     dca:	08 95       	ret

00000dcc <GetSendLeng>:
     dcc:	e8 2f       	mov	r30, r24
     dce:	f0 e0       	ldi	r31, 0x00	; 0
     dd0:	ec 58       	subi	r30, 0x8C	; 140
     dd2:	fc 4f       	sbci	r31, 0xFC	; 252
     dd4:	84 91       	lpm	r24, Z
     dd6:	08 95       	ret

00000dd8 <GetDeviceAddress>:
     dd8:	28 e0       	ldi	r18, 0x08	; 8
     dda:	82 9f       	mul	r24, r18
     ddc:	c0 01       	movw	r24, r0
     dde:	11 24       	eor	r1, r1
     de0:	fc 01       	movw	r30, r24
     de2:	ea 57       	subi	r30, 0x7A	; 122
     de4:	fc 4f       	sbci	r31, 0xFC	; 252
     de6:	85 91       	lpm	r24, Z+
     de8:	94 91       	lpm	r25, Z
     dea:	08 95       	ret

00000dec <SccISR>:
     dec:	2f 92       	push	r2
     dee:	3f 92       	push	r3
     df0:	4f 92       	push	r4
     df2:	5f 92       	push	r5
     df4:	6f 92       	push	r6
     df6:	7f 92       	push	r7
     df8:	8f 92       	push	r8
     dfa:	9f 92       	push	r9
     dfc:	af 92       	push	r10
     dfe:	bf 92       	push	r11
     e00:	cf 92       	push	r12
     e02:	df 92       	push	r13
     e04:	ef 92       	push	r14
     e06:	ff 92       	push	r15
     e08:	0f 93       	push	r16
     e0a:	1f 93       	push	r17
     e0c:	cf 93       	push	r28
     e0e:	df 93       	push	r29
     e10:	cd b7       	in	r28, 0x3d	; SP
     e12:	de b7       	in	r29, 0x3e
     e14:	68 97       	sbiw	r28, 0x18	; sp = sp - 0x18
     e16:	0f b6       	in	r0, 0x3f	; sreq
     e18:	f8 94       	cli
     e1a:	de bf       	out	0x3e, r29	; sp
     e1c:	0f be       	out	0x3f, r0	; sreg
     e1e:	cd bf       	out	0x3d, r28	; sp
     e20:	90 e0       	ldi	r25, 0x00	; ???
     e22:	f8 2f       	mov	r31, r24	; chip id << 8
     e24:	ee 27       	eor	r30, r30
     e26:	8f 01       	movw	r16, r30	; r16 = id << 8
     e28:	0f 5f       	subi	r16, 0xFF	; r16 += 0x2000 + (id << 8)
     e2a:	1f 4d       	sbci	r17, 0xDF
     e2c:	1e 8b       	std	Y+22, r17	; id - 8192, 0x2000 + (id << 8)
     e2e:	0d 8b       	std	Y+21, r16	;
     e30:	6f 01       	movw	r12, r30	; r13,12 = id << 8
     e32:	1d ef       	ldi	r17, 0xFD
     e34:	c1 1a       	sub	r12, r17		; r13,12 -= 2003
     e36:	1f ed       	ldi	r17, 0xDF
     e38:	d1 0a       	sbc	r13, r17

     e3a:	88 0f       	add	r24, r24	; id + id
     e3c:	99 1f       	adc	r25, r25

     e3e:	21 e0       	ldi	r18, 0x01	; n
     e40:	30 e0       	ldi	r19, 0x00
     e42:	a9 01       	movw	r20, r18
     e44:	08 2e       	mov	r0, r24		; cid
     e46:	02 c0       	rjmp	.+4     ; 0xe4c <SccISR+0x60>

     e48:	44 0f       	add	r20, r20	; n + n
     e4a:	55 1f       	adc	r21, r21
     e4c:	0a 94       	dec	r0
     e4e:	e2 f7       	brpl	.-8      	; 0xe48 <SccISR+0x5c>

     e50:	5e 83       	std	Y+6, r21	; n + n
     e52:	4d 83       	std	Y+5, r20
     e54:	bf 01       	movw	r22, r30
     e56:	6e 5f       	subi	r22, 0xFE	; 254
     e58:	7f 4d       	sbci	r23, 0xDF	; 223
     e5a:	7a 83       	std	Y+2, r23	; 0x02
     e5c:	69 83       	std	Y+1, r22	; 0x01
     e5e:	ac 01       	movw	r20, r24
     e60:	4f 5f       	subi	r20, 0xFF	; 255
     e62:	5f 4f       	sbci	r21, 0xFF	; 255
     e64:	d9 01       	movw	r26, r18
     e66:	04 2e       	mov	r0, r20
     e68:	02 c0       	rjmp	.+4      	; 0xe6e <SccISR+0x82>
     e6a:	aa 0f       	add	r26, r26
     e6c:	bb 1f       	adc	r27, r27
     e6e:	0a 94       	dec	r0
     e70:	e2 f7       	brpl	.-8      	; 0xe6a <SccISR+0x7e>
     e72:	b8 87       	std	Y+8, r27	; 0x08
     e74:	af 83       	std	Y+7, r26	; 0x07
     e76:	8f 01       	movw	r16, r30
     e78:	10 5e       	subi	r17, 0xE0	; 224
     e7a:	18 8f       	std	Y+24, r17	; 0x18
     e7c:	0f 8b       	std	Y+23, r16	; 0x17
     e7e:	6a e0       	ldi	r22, 0x0A	; 10
     e80:	e6 2e       	mov	r14, r22
     e82:	ff 24       	eor	r15, r15
     e84:	f3 94       	inc	r15
     e86:	8e 9d       	mul	r24, r14
     e88:	f0 01       	movw	r30, r0
     e8a:	8f 9d       	mul	r24, r15
     e8c:	f0 0d       	add	r31, r0
     e8e:	9e 9d       	mul	r25, r14
     e90:	f0 0d       	add	r31, r0
     e92:	11 24       	eor	r1, r1
     e94:	9f 01       	movw	r18, r30
     e96:	22 5f       	subi	r18, 0xF2	; 242
     e98:	3e 4f       	sbci	r19, 0xFE	; 254
     e9a:	b9 01       	movw	r22, r18
     e9c:	68 5f       	subi	r22, 0xF8	; 248
     e9e:	7e 4f       	sbci	r23, 0xFE	; 254
     ea0:	cf 01       	movw	r24, r30
     ea2:	81 5f       	subi	r24, 0xF1	; 241
     ea4:	9e 4f       	sbci	r25, 0xFE	; 254
     ea6:	9a 87       	std	Y+10, r25	; 0x0a
     ea8:	89 87       	std	Y+9, r24	; 0x09
     eaa:	d9 01       	movw	r26, r18
     eac:	a9 57       	subi	r26, 0x79	; 121
     eae:	bf 4f       	sbci	r27, 0xFF	; 255
     eb0:	bc 83       	std	Y+4, r27	; 0x04
     eb2:	ab 83       	std	Y+3, r26	; 0x03
     eb4:	f9 01       	movw	r30, r18
     eb6:	e7 5f       	subi	r30, 0xF7	; 247
     eb8:	fe 4f       	sbci	r31, 0xFE	; 254
     eba:	fc 87       	std	Y+12, r31	; 0x0c
     ebc:	eb 87       	std	Y+11, r30	; 0x0b
     ebe:	4e 9d       	mul	r20, r14
     ec0:	50 01       	movw	r10, r0
     ec2:	4f 9d       	mul	r20, r15
     ec4:	b0 0c       	add	r11, r0
     ec6:	5e 9d       	mul	r21, r14
     ec8:	b0 0c       	add	r11, r0
     eca:	11 24       	eor	r1, r1
     ecc:	d5 01       	movw	r26, r10
     ece:	a2 5f       	subi	r26, 0xF2	; 242
     ed0:	be 4f       	sbci	r27, 0xFE	; 254
     ed2:	88 24       	eor	r8, r8
     ed4:	83 94       	inc	r8
     ed6:	19 01       	movw	r2, r18
     ed8:	f5 e8       	ldi	r31, 0x85	; 133
     eda:	2f 0e       	add	r2, r31
     edc:	31 1c       	adc	r3, r1
     ede:	89 01       	movw	r16, r18
     ee0:	0a 57       	subi	r16, 0x7A	; 122
     ee2:	1f 4f       	sbci	r17, 0xFF	; 255
     ee4:	1e 87       	std	Y+14, r17	; 0x0e
     ee6:	0d 87       	std	Y+13, r16	; 0x0d
     ee8:	2d 01       	movw	r4, r26
     eea:	8d 01       	movw	r16, r26
     eec:	08 5f       	subi	r16, 0xF8	; 248
     eee:	1e 4f       	sbci	r17, 0xFE	; 254
     ef0:	c5 01       	movw	r24, r10
     ef2:	81 5f       	subi	r24, 0xF1	; 241
     ef4:	9e 4f       	sbci	r25, 0xFE	; 254
     ef6:	98 8b       	std	Y+16, r25	; 0x10
     ef8:	8f 87       	std	Y+15, r24	; 0x0f
     efa:	3d 01       	movw	r6, r26
     efc:	97 e8       	ldi	r25, 0x87	; 135
     efe:	69 0e       	add	r6, r25
     f00:	71 1c       	adc	r7, r1
     f02:	fd 01       	movw	r30, r26
     f04:	e7 5f       	subi	r30, 0xF7	; 247
     f06:	fe 4f       	sbci	r31, 0xFE	; 254
     f08:	fa 8b       	std	Y+18, r31	; 0x12
     f0a:	e9 8b       	std	Y+17, r30	; 0x11
     f0c:	5a 01       	movw	r10, r20
     f0e:	ff ef       	ldi	r31, 0xFF	; 255
     f10:	af 1a       	sub	r10, r31
     f12:	bf 0a       	sbc	r11, r31
     f14:	ae 9c       	mul	r10, r14
     f16:	a0 01       	movw	r20, r0
     f18:	af 9c       	mul	r10, r15
     f1a:	50 0d       	add	r21, r0
     f1c:	be 9c       	mul	r11, r14
     f1e:	50 0d       	add	r21, r0
     f20:	11 24       	eor	r1, r1
     f22:	ca 01       	movw	r24, r20
     f24:	82 5f       	subi	r24, 0xF2	; 242
     f26:	9e 4f       	sbci	r25, 0xFE	; 254
     f28:	5c 01       	movw	r10, r24
     f2a:	7d 01       	movw	r14, r26
     f2c:	95 e8       	ldi	r25, 0x85	; 133
     f2e:	e9 0e       	add	r14, r25
     f30:	f1 1c       	adc	r15, r1
     f32:	fd 01       	movw	r30, r26
     f34:	ea 57       	subi	r30, 0x7A	; 122
     f36:	ff 4f       	sbci	r31, 0xFF	; 255
     f38:	fc 8b       	std	Y+20, r31	; 0x14
     f3a:	eb 8b       	std	Y+19, r30	; 0x13
     f3c:	43 e0       	ldi	r20, 0x03	; 3
     f3e:	ed 89       	ldd	r30, Y+21	; 0x15
     f40:	fe 89       	ldd	r31, Y+22	; 0x16
     f42:	40 83       	st	Z, r20
     f44:	80 81       	ld	r24, Z
     f46:	85 ff       	sbrs	r24, 5
     f48:	38 c0       	rjmp	.+112    	; 0xfba <SccISR+0x1ce>
     f4a:	f6 01       	movw	r30, r12
     f4c:	90 80       	ld	r9, Z
     f4e:	40 91 0e 01 	lds	r20, 0x010E
     f52:	50 e0       	ldi	r21, 0x00	; 0
     f54:	ed 81       	ldd	r30, Y+5	; 0x05
     f56:	fe 81       	ldd	r31, Y+6	; 0x06
     f58:	4e 23       	and	r20, r30
     f5a:	5f 23       	and	r21, r31
     f5c:	45 2b       	or	r20, r21
     f5e:	69 f5       	brne	.+90     	; 0xfba <SccISR+0x1ce>
     f60:	fb 01       	movw	r30, r22
     f62:	40 81       	ld	r20, Z
     f64:	47 fd       	sbrc	r20, 7
     f66:	29 c0       	rjmp	.+82     	; 0xfba <SccISR+0x1ce>
     f68:	51 e0       	ldi	r21, 0x01	; 1
     f6a:	54 0f       	add	r21, r20
     f6c:	50 83       	st	Z, r21
     f6e:	f9 01       	movw	r30, r18
     f70:	e4 0f       	add	r30, r20
     f72:	f1 1d       	adc	r31, r1
     f74:	af 01       	movw	r20, r30
     f76:	48 57       	subi	r20, 0x78	; 120
     f78:	5f 4f       	sbci	r21, 0xFF	; 255
     f7a:	fa 01       	movw	r30, r20
     f7c:	90 82       	st	Z, r9
     f7e:	e9 85       	ldd	r30, Y+9	; 0x09
     f80:	fa 85       	ldd	r31, Y+10	; 0x0a
     f82:	43 81       	ldd	r20, Z+3	; 0x03
     f84:	40 73       	andi	r20, 0x30	; 48
     f86:	40 33       	cpi	r20, 0x30	; 48
     f88:	39 f4       	brne	.+14     	; 0xf98 <SccISR+0x1ac>
     f8a:	ed 89       	ldd	r30, Y+21	; 0x15
     f8c:	fe 89       	ldd	r31, Y+22	; 0x16
     f8e:	80 82       	st	Z, r8
     f90:	40 81       	ld	r20, Z
     f92:	47 ff       	sbrs	r20, 7
     f94:	12 c0       	rjmp	.+36     	; 0xfba <SccISR+0x1ce>
     f96:	0f c0       	rjmp	.+30     	; 0xfb6 <SccISR+0x1ca>
     f98:	eb 81       	ldd	r30, Y+3	; 0x03
     f9a:	fc 81       	ldd	r31, Y+4	; 0x04
     f9c:	40 81       	ld	r20, Z
     f9e:	41 11       	cpse	r20, r1
     fa0:	05 c0       	rjmp	.+10     	; 0xfac <SccISR+0x1c0>
     fa2:	eb 85       	ldd	r30, Y+11	; 0x0b
     fa4:	fc 85       	ldd	r31, Y+12	; 0x0c
     fa6:	40 81       	ld	r20, Z
     fa8:	44 23       	and	r20, r20
     faa:	29 f0       	breq	.+10     	; 0xfb6 <SccISR+0x1ca>
     fac:	fb 01       	movw	r30, r22
     fae:	40 81       	ld	r20, Z
     fb0:	41 50       	subi	r20, 0x01	; 1
     fb2:	40 83       	st	Z, r20
     fb4:	02 c0       	rjmp	.+4      	; 0xfba <SccISR+0x1ce>
     fb6:	f2 e0       	ldi	r31, 0x02	; 2
     fb8:	fc 93       	st	X, r31
     fba:	84 ff       	sbrs	r24, 4
     fbc:	19 c0       	rjmp	.+50     	; 0xff0 <SccISR+0x204>
     fbe:	f1 01       	movw	r30, r2
     fc0:	40 81       	ld	r20, Z
     fc2:	ed 85       	ldd	r30, Y+13	; 0x0d
     fc4:	fe 85       	ldd	r31, Y+14	; 0x0e
     fc6:	50 81       	ld	r21, Z
     fc8:	45 17       	cp	r20, r21
     fca:	50 f4       	brcc	.+20     	; 0xfe0 <SccISR+0x1f4>
     fcc:	51 e0       	ldi	r21, 0x01	; 1
     fce:	54 0f       	add	r21, r20
     fd0:	f1 01       	movw	r30, r2
     fd2:	50 83       	st	Z, r21
     fd4:	f9 01       	movw	r30, r18
     fd6:	e4 0f       	add	r30, r20
     fd8:	f1 1d       	adc	r31, r1
     fda:	45 81       	ldd	r20, Z+5	; 0x05
     fdc:	f6 01       	movw	r30, r12
     fde:	07 c0       	rjmp	.+14     	; 0xfee <SccISR+0x202>
     fe0:	48 e2       	ldi	r20, 0x28	; 40
     fe2:	ed 89       	ldd	r30, Y+21	; 0x15
     fe4:	fe 89       	ldd	r31, Y+22	; 0x16
     fe6:	40 83       	st	Z, r20
     fe8:	42 e0       	ldi	r20, 0x02	; 2
     fea:	eb 81       	ldd	r30, Y+3	; 0x03
     fec:	fc 81       	ldd	r31, Y+4	; 0x04
     fee:	40 83       	st	Z, r20
     ff0:	83 ff       	sbrs	r24, 3
     ff2:	04 c0       	rjmp	.+8      	; 0xffc <SccISR+0x210>
     ff4:	40 e1       	ldi	r20, 0x10	; 16
     ff6:	ed 89       	ldd	r30, Y+21	; 0x15
     ff8:	fe 89       	ldd	r31, Y+22	; 0x16
     ffa:	40 83       	st	Z, r20
     ffc:	82 ff       	sbrs	r24, 2
     ffe:	38 c0       	rjmp	.+112    	; 0x1070 <SccISR+0x284>
    1000:	e9 81       	ldd	r30, Y+1	; 0x01
    1002:	fa 81       	ldd	r31, Y+2	; 0x02
    1004:	90 80       	ld	r9, Z
    1006:	40 91 0e 01 	lds	r20, 0x010E
    100a:	50 e0       	ldi	r21, 0x00	; 0
    100c:	ef 81       	ldd	r30, Y+7	; 0x07
    100e:	f8 85       	ldd	r31, Y+8	; 0x08
    1010:	4e 23       	and	r20, r30
    1012:	5f 23       	and	r21, r31
    1014:	45 2b       	or	r20, r21
    1016:	61 f5       	brne	.+88     	; 0x1070 <SccISR+0x284>
    1018:	f8 01       	movw	r30, r16
    101a:	40 81       	ld	r20, Z
    101c:	47 fd       	sbrc	r20, 7
    101e:	28 c0       	rjmp	.+80     	; 0x1070 <SccISR+0x284>
    1020:	51 e0       	ldi	r21, 0x01	; 1
    1022:	54 0f       	add	r21, r20
    1024:	50 83       	st	Z, r21
    1026:	f2 01       	movw	r30, r4
    1028:	e4 0f       	add	r30, r20
    102a:	f1 1d       	adc	r31, r1
    102c:	af 01       	movw	r20, r30
    102e:	48 57       	subi	r20, 0x78	; 120
    1030:	5f 4f       	sbci	r21, 0xFF	; 255
    1032:	fa 01       	movw	r30, r20
    1034:	90 82       	st	Z, r9
    1036:	ef 85       	ldd	r30, Y+15	; 0x0f
    1038:	f8 89       	ldd	r31, Y+16	; 0x10
    103a:	43 81       	ldd	r20, Z+3	; 0x03
    103c:	40 73       	andi	r20, 0x30	; 48
    103e:	40 33       	cpi	r20, 0x30	; 48
    1040:	39 f4       	brne	.+14     	; 0x1050 <SccISR+0x264>
    1042:	ef 89       	ldd	r30, Y+23	; 0x17
    1044:	f8 8d       	ldd	r31, Y+24	; 0x18
    1046:	80 82       	st	Z, r8
    1048:	40 81       	ld	r20, Z
    104a:	47 ff       	sbrs	r20, 7
    104c:	11 c0       	rjmp	.+34     	; 0x1070 <SccISR+0x284>
    104e:	0d c0       	rjmp	.+26     	; 0x106a <SccISR+0x27e>
    1050:	f3 01       	movw	r30, r6
    1052:	40 81       	ld	r20, Z
    1054:	41 11       	cpse	r20, r1
    1056:	05 c0       	rjmp	.+10     	; 0x1062 <SccISR+0x276>
    1058:	e9 89       	ldd	r30, Y+17	; 0x11
    105a:	fa 89       	ldd	r31, Y+18	; 0x12
    105c:	40 81       	ld	r20, Z
    105e:	44 23       	and	r20, r20
    1060:	21 f0       	breq	.+8      	; 0x106a <SccISR+0x27e>
    1062:	f8 01       	movw	r30, r16
    1064:	40 81       	ld	r20, Z
    1066:	41 50       	subi	r20, 0x01	; 1
    1068:	02 c0       	rjmp	.+4      	; 0x106e <SccISR+0x282>
    106a:	42 e0       	ldi	r20, 0x02	; 2
    106c:	f5 01       	movw	r30, r10
    106e:	40 83       	st	Z, r20
    1070:	81 ff       	sbrs	r24, 1
    1072:	19 c0       	rjmp	.+50     	; 0x10a6 <SccISR+0x2ba>
    1074:	f7 01       	movw	r30, r14
    1076:	40 81       	ld	r20, Z
    1078:	eb 89       	ldd	r30, Y+19	; 0x13
    107a:	fc 89       	ldd	r31, Y+20	; 0x14
    107c:	50 81       	ld	r21, Z
    107e:	45 17       	cp	r20, r21
    1080:	58 f4       	brcc	.+22     	; 0x1098 <SccISR+0x2ac>
    1082:	51 e0       	ldi	r21, 0x01	; 1
    1084:	54 0f       	add	r21, r20
    1086:	f7 01       	movw	r30, r14
    1088:	50 83       	st	Z, r21
    108a:	f2 01       	movw	r30, r4
    108c:	e4 0f       	add	r30, r20
    108e:	f1 1d       	adc	r31, r1
    1090:	45 81       	ldd	r20, Z+5	; 0x05
    1092:	e9 81       	ldd	r30, Y+1	; 0x01
    1094:	fa 81       	ldd	r31, Y+2	; 0x02
    1096:	06 c0       	rjmp	.+12     	; 0x10a4 <SccISR+0x2b8>
    1098:	48 e2       	ldi	r20, 0x28	; 40
    109a:	ef 89       	ldd	r30, Y+23	; 0x17
    109c:	f8 8d       	ldd	r31, Y+24	; 0x18
    109e:	40 83       	st	Z, r20
    10a0:	42 e0       	ldi	r20, 0x02	; 2
    10a2:	f3 01       	movw	r30, r6
    10a4:	40 83       	st	Z, r20
    10a6:	80 ff       	sbrs	r24, 0
    10a8:	04 c0       	rjmp	.+8      	; 0x10b2 <SccISR+0x2c6>
    10aa:	40 e1       	ldi	r20, 0x10	; 16
    10ac:	ef 89       	ldd	r30, Y+23	; 0x17
    10ae:	f8 8d       	ldd	r31, Y+24	; 0x18
    10b0:	40 83       	st	Z, r20
    10b2:	48 e3       	ldi	r20, 0x38	; 56
    10b4:	ef 89       	ldd	r30, Y+23	; 0x17
    10b6:	f8 8d       	ldd	r31, Y+24	; 0x18
    10b8:	40 83       	st	Z, r20
    10ba:	81 11       	cpse	r24, r1
    10bc:	3f cf       	rjmp	.-386    	; 0xf3c <SccISR+0x150>
    10be:	68 96       	adiw	r28, 0x18	; 24
    10c0:	0f b6       	in	r0, 0x3f	; 63
    10c2:	f8 94       	cli
    10c4:	de bf       	out	0x3e, r29	; 62
    10c6:	0f be       	out	0x3f, r0	; 63
    10c8:	cd bf       	out	0x3d, r28	; 61
    10ca:	df 91       	pop	r29
    10cc:	cf 91       	pop	r28
    10ce:	1f 91       	pop	r17
    10d0:	0f 91       	pop	r16
    10d2:	ff 90       	pop	r15
    10d4:	ef 90       	pop	r14
    10d6:	df 90       	pop	r13
    10d8:	cf 90       	pop	r12
    10da:	bf 90       	pop	r11
    10dc:	af 90       	pop	r10
    10de:	9f 90       	pop	r9
    10e0:	8f 90       	pop	r8
    10e2:	7f 90       	pop	r7
    10e4:	6f 90       	pop	r6
    10e6:	5f 90       	pop	r5
    10e8:	4f 90       	pop	r4
    10ea:	3f 90       	pop	r3
    10ec:	2f 90       	pop	r2
    10ee:	08 95       	ret

000010f0 <WriteSockWord>:
    10f0:	fc 01       	movw	r30, r24
    10f2:	70 83       	st	Z, r23
    10f4:	61 83       	std	Z+1, r22	; 0x01
    10f6:	08 95       	ret

000010f8 <ReadSockWord>:
    10f8:	fc 01       	movw	r30, r24
    10fa:	20 81       	ld	r18, Z
    10fc:	81 81       	ldd	r24, Z+1	; 0x01
    10fe:	90 e0       	ldi	r25, 0x00	; 0
    1100:	92 2b       	or	r25, r18
    1102:	08 95       	ret

00001104 <SoftResetSock>:
    1104:	80 e8       	ldi	r24, 0x80	; 128
    1106:	80 93 00 80 	sts	0x8000, r24
    110a:	85 e5       	ldi	r24, 0x55	; 85
    110c:	80 93 1b 80 	sts	0x801B, r24
    1110:	80 93 1a 80 	sts	0x801A, r24
    1114:	a4 e6       	ldi	r26, 0x64	; 100
    1116:	bb e0       	ldi	r27, 0x0B	; 11
    1118:	1c 92       	st	X, r1
    111a:	e9 e6       	ldi	r30, 0x69	; 105
    111c:	fb e0       	ldi	r31, 0x0B	; 11
    111e:	11 82       	std	Z+1, r1	; 0x01
    1120:	10 82       	st	Z, r1
    1122:	11 96       	adiw	r26, 0x01	; 1
    1124:	1c 92       	st	X, r1
    1126:	11 97       	sbiw	r26, 0x01	; 1
    1128:	13 82       	std	Z+3, r1	; 0x03
    112a:	12 82       	std	Z+2, r1	; 0x02
    112c:	12 96       	adiw	r26, 0x02	; 2
    112e:	1c 92       	st	X, r1
    1130:	12 97       	sbiw	r26, 0x02	; 2
    1132:	15 82       	std	Z+5, r1	; 0x05
    1134:	14 82       	std	Z+4, r1	; 0x04
    1136:	13 96       	adiw	r26, 0x03	; 3
    1138:	1c 92       	st	X, r1
    113a:	17 82       	std	Z+7, r1	; 0x07
    113c:	16 82       	std	Z+6, r1	; 0x06
    113e:	08 95       	ret

00001140 <SetGatewayAddress>:
    1140:	0f 93       	push	r16
    1142:	1f 93       	push	r17
    1144:	09 2f       	mov	r16, r25
    1146:	11 27       	eor	r17, r17
    1148:	22 27       	eor	r18, r18
    114a:	33 27       	eor	r19, r19
    114c:	00 93 01 80 	sts	0x8001, r16
    1150:	8c 01       	movw	r16, r24
    1152:	22 27       	eor	r18, r18
    1154:	33 27       	eor	r19, r19
    1156:	00 93 02 80 	sts	0x8002, r16
    115a:	07 2f       	mov	r16, r23
    115c:	18 2f       	mov	r17, r24
    115e:	29 2f       	mov	r18, r25
    1160:	33 27       	eor	r19, r19
    1162:	00 93 03 80 	sts	0x8003, r16
    1166:	60 93 04 80 	sts	0x8004, r22
    116a:	1f 91       	pop	r17
    116c:	0f 91       	pop	r16
    116e:	08 95       	ret

00001170 <SetSubnetMaskAddress>:
    1170:	0f 93       	push	r16
    1172:	1f 93       	push	r17
    1174:	09 2f       	mov	r16, r25
    1176:	11 27       	eor	r17, r17
    1178:	22 27       	eor	r18, r18
    117a:	33 27       	eor	r19, r19
    117c:	00 93 05 80 	sts	0x8005, r16
    1180:	8c 01       	movw	r16, r24
    1182:	22 27       	eor	r18, r18
    1184:	33 27       	eor	r19, r19
    1186:	00 93 06 80 	sts	0x8006, r16
    118a:	07 2f       	mov	r16, r23
    118c:	18 2f       	mov	r17, r24
    118e:	29 2f       	mov	r18, r25
    1190:	33 27       	eor	r19, r19
    1192:	00 93 07 80 	sts	0x8007, r16
    1196:	60 93 08 80 	sts	0x8008, r22
    119a:	1f 91       	pop	r17
    119c:	0f 91       	pop	r16
    119e:	08 95       	ret

000011a0 <SetSrcHwAddress>:
    11a0:	fc 01       	movw	r30, r24
    11a2:	80 81       	ld	r24, Z
    11a4:	80 93 09 80 	sts	0x8009, r24
    11a8:	81 81       	ldd	r24, Z+1	; 0x01
    11aa:	80 93 0a 80 	sts	0x800A, r24
    11ae:	82 81       	ldd	r24, Z+2	; 0x02
    11b0:	80 93 0b 80 	sts	0x800B, r24
    11b4:	83 81       	ldd	r24, Z+3	; 0x03
    11b6:	80 93 0c 80 	sts	0x800C, r24
    11ba:	84 81       	ldd	r24, Z+4	; 0x04
    11bc:	80 93 0d 80 	sts	0x800D, r24
    11c0:	85 81       	ldd	r24, Z+5	; 0x05
    11c2:	80 93 0e 80 	sts	0x800E, r24
    11c6:	08 95       	ret

000011c8 <GetSrcIpAddress>:
    11c8:	40 91 0f 80 	lds	r20, 0x800F
    11cc:	20 91 10 80 	lds	r18, 0x8010
    11d0:	60 91 11 80 	lds	r22, 0x8011
    11d4:	30 91 12 80 	lds	r19, 0x8012
    11d8:	86 2f       	mov	r24, r22
    11da:	90 e0       	ldi	r25, 0x00	; 0
    11dc:	a0 e0       	ldi	r26, 0x00	; 0
    11de:	b0 e0       	ldi	r27, 0x00	; 0
    11e0:	ba 2f       	mov	r27, r26
    11e2:	a9 2f       	mov	r26, r25
    11e4:	98 2f       	mov	r25, r24
    11e6:	88 27       	eor	r24, r24
    11e8:	b4 2b       	or	r27, r20
    11ea:	83 2b       	or	r24, r19
    11ec:	bc 01       	movw	r22, r24
    11ee:	cd 01       	movw	r24, r26
    11f0:	82 2b       	or	r24, r18
    11f2:	08 95       	ret

000011f4 <SetSrcIpAddress>:
    11f4:	0f 93       	push	r16
    11f6:	1f 93       	push	r17
    11f8:	09 2f       	mov	r16, r25
    11fa:	11 27       	eor	r17, r17
    11fc:	22 27       	eor	r18, r18
    11fe:	33 27       	eor	r19, r19
    1200:	00 93 0f 80 	sts	0x800F, r16
    1204:	8c 01       	movw	r16, r24
    1206:	22 27       	eor	r18, r18
    1208:	33 27       	eor	r19, r19
    120a:	00 93 10 80 	sts	0x8010, r16
    120e:	07 2f       	mov	r16, r23
    1210:	18 2f       	mov	r17, r24
    1212:	29 2f       	mov	r18, r25
    1214:	33 27       	eor	r19, r19
    1216:	00 93 11 80 	sts	0x8011, r16
    121a:	60 93 12 80 	sts	0x8012, r22
    121e:	1f 91       	pop	r17
    1220:	0f 91       	pop	r16
    1222:	08 95       	ret

00001224 <SetSockIntMask>:
    1224:	80 93 16 80 	sts	0x8016, r24
    1228:	08 95       	ret

0000122a <GetSockStatus>:
    122a:	e8 2f       	mov	r30, r24
    122c:	f0 e0       	ldi	r31, 0x00	; 0
    122e:	fe 2f       	mov	r31, r30
    1230:	ee 27       	eor	r30, r30
    1232:	ed 5f       	subi	r30, 0xFD	; 253
    1234:	fb 47       	sbci	r31, 0x7B	; 123
    1236:	80 81       	ld	r24, Z
    1238:	08 95       	ret

0000123a <GetSockTxFreeSize>:
    123a:	ef 92       	push	r14
    123c:	ff 92       	push	r15
    123e:	0f 93       	push	r16
    1240:	1f 93       	push	r17
    1242:	cf 93       	push	r28
    1244:	df 93       	push	r29
    1246:	c8 2f       	mov	r28, r24
    1248:	d0 e0       	ldi	r29, 0x00	; 0
    124a:	dc 2f       	mov	r29, r28
    124c:	cc 27       	eor	r28, r28
    124e:	c0 5e       	subi	r28, 0xE0	; 224
    1250:	db 47       	sbci	r29, 0x7B	; 123
    1252:	e1 2c       	mov	r14, r1
    1254:	f1 2c       	mov	r15, r1
    1256:	ce 01       	movw	r24, r28
    1258:	4f df       	rcall	.-354    	; 0x10f8 <ReadSockWord>
    125a:	8c 01       	movw	r16, r24
    125c:	89 2b       	or	r24, r25
    125e:	19 f0       	breq	.+6      	; 0x1266 <GetSockTxFreeSize+0x2c>
    1260:	ce 01       	movw	r24, r28
    1262:	4a df       	rcall	.-364    	; 0x10f8 <ReadSockWord>
    1264:	7c 01       	movw	r14, r24
    1266:	0e 15       	cp	r16, r14
    1268:	1f 05       	cpc	r17, r15
    126a:	a9 f7       	brne	.-22     	; 0x1256 <GetSockTxFreeSize+0x1c>
    126c:	c8 01       	movw	r24, r16
    126e:	df 91       	pop	r29
    1270:	cf 91       	pop	r28
    1272:	1f 91       	pop	r17
    1274:	0f 91       	pop	r16
    1276:	ff 90       	pop	r15
    1278:	ef 90       	pop	r14
    127a:	08 95       	ret

0000127c <GetSockRecvedSize>:
    127c:	cf 93       	push	r28
    127e:	df 93       	push	r29
    1280:	c8 2f       	mov	r28, r24
    1282:	d0 e0       	ldi	r29, 0x00	; 0
    1284:	9c 2f       	mov	r25, r28
    1286:	88 27       	eor	r24, r24
    1288:	8a 5d       	subi	r24, 0xDA	; 218
    128a:	9b 47       	sbci	r25, 0x7B	; 123
    128c:	35 df       	rcall	.-406    	; 0x10f8 <ReadSockWord>
    128e:	9c 01       	movw	r18, r24
    1290:	89 2b       	or	r24, r25
    1292:	59 f0       	breq	.+22     	; 0x12aa <GetSockRecvedSize+0x2e>
    1294:	cc 0f       	add	r28, r28
    1296:	dd 1f       	adc	r29, r29
    1298:	c7 59       	subi	r28, 0x97	; 151
    129a:	d4 4f       	sbci	r29, 0xF4	; 244
    129c:	88 81       	ld	r24, Y
    129e:	99 81       	ldd	r25, Y+1	; 0x01
    12a0:	28 17       	cp	r18, r24
    12a2:	39 07       	cpc	r19, r25
    12a4:	21 f0       	breq	.+8      	; 0x12ae <GetSockRecvedSize+0x32>
    12a6:	39 83       	std	Y+1, r19	; 0x01
    12a8:	28 83       	st	Y, r18
    12aa:	80 e0       	ldi	r24, 0x00	; 0
    12ac:	90 e0       	ldi	r25, 0x00	; 0
    12ae:	df 91       	pop	r29
    12b0:	cf 91       	pop	r28
    12b2:	08 95       	ret

000012b4 <GetSockDestIpAddress>:
    12b4:	90 e0       	ldi	r25, 0x00	; 0
    12b6:	98 2f       	mov	r25, r24
    12b8:	88 27       	eor	r24, r24
    12ba:	fc 01       	movw	r30, r24
    12bc:	e4 5f       	subi	r30, 0xF4	; 244
    12be:	fb 47       	sbci	r31, 0x7B	; 123
    12c0:	40 81       	ld	r20, Z
    12c2:	31 96       	adiw	r30, 0x01	; 1
    12c4:	20 81       	ld	r18, Z
    12c6:	31 96       	adiw	r30, 0x01	; 1
    12c8:	60 81       	ld	r22, Z
    12ca:	31 96       	adiw	r30, 0x01	; 1
    12cc:	30 81       	ld	r19, Z
    12ce:	86 2f       	mov	r24, r22
    12d0:	90 e0       	ldi	r25, 0x00	; 0
    12d2:	a0 e0       	ldi	r26, 0x00	; 0
    12d4:	b0 e0       	ldi	r27, 0x00	; 0
    12d6:	ba 2f       	mov	r27, r26
    12d8:	a9 2f       	mov	r26, r25
    12da:	98 2f       	mov	r25, r24
    12dc:	88 27       	eor	r24, r24
    12de:	b4 2b       	or	r27, r20
    12e0:	83 2b       	or	r24, r19
    12e2:	bc 01       	movw	r22, r24
    12e4:	cd 01       	movw	r24, r26
    12e6:	82 2b       	or	r24, r18
    12e8:	08 95       	ret

000012ea <WriteSock>:
    12ea:	cf 92       	push	r12
    12ec:	df 92       	push	r13
    12ee:	ef 92       	push	r14
    12f0:	ff 92       	push	r15
    12f2:	0f 93       	push	r16
    12f4:	1f 93       	push	r17
    12f6:	cf 93       	push	r28
    12f8:	df 93       	push	r29
    12fa:	57 70       	andi	r21, 0x07	; 7
    12fc:	e8 2e       	mov	r14, r24
    12fe:	f1 2c       	mov	r15, r1
    1300:	fe 2c       	mov	r15, r14
    1302:	ee 24       	eor	r14, r14
    1304:	ff 0c       	add	r15, r15
    1306:	ff 0c       	add	r15, r15
    1308:	ff 0c       	add	r15, r15
    130a:	ca 01       	movw	r24, r20
    130c:	8e 0d       	add	r24, r14
    130e:	9f 1d       	adc	r25, r15
    1310:	90 54       	subi	r25, 0x40	; 64
    1312:	fa 01       	movw	r30, r20
    1314:	e2 0f       	add	r30, r18
    1316:	f3 1f       	adc	r31, r19
    1318:	e1 30       	cpi	r30, 0x01	; 1
    131a:	f8 40       	sbci	r31, 0x08	; 8
    131c:	98 f0       	brcs	.+38     	; 0x1344 <WriteSock+0x5a>
    131e:	89 01       	movw	r16, r18
    1320:	6b 01       	movw	r12, r22
    1322:	e0 e0       	ldi	r30, 0x00	; 0
    1324:	f8 e0       	ldi	r31, 0x08	; 8
    1326:	ef 01       	movw	r28, r30
    1328:	c4 1b       	sub	r28, r20
    132a:	d5 0b       	sbc	r29, r21
    132c:	ae 01       	movw	r20, r28
    132e:	0e 94 7f 17 	call	0x2efe	; 0x2efe <memcpy>
    1332:	a8 01       	movw	r20, r16
    1334:	4c 1b       	sub	r20, r28
    1336:	5d 0b       	sbc	r21, r29
    1338:	b6 01       	movw	r22, r12
    133a:	6c 0f       	add	r22, r28
    133c:	7d 1f       	adc	r23, r29
    133e:	c7 01       	movw	r24, r14
    1340:	90 54       	subi	r25, 0x40	; 64
    1342:	01 c0       	rjmp	.+2      	; 0x1346 <WriteSock+0x5c>
    1344:	a9 01       	movw	r20, r18
    1346:	df 91       	pop	r29
    1348:	cf 91       	pop	r28
    134a:	1f 91       	pop	r17
    134c:	0f 91       	pop	r16
    134e:	ff 90       	pop	r15
    1350:	ef 90       	pop	r14
    1352:	df 90       	pop	r13
    1354:	cf 90       	pop	r12
    1356:	0c 94 7f 17 	jmp	0x2efe	; 0x2efe <memcpy>

0000135a <SendSockContinue>:
    135a:	af 92       	push	r10
    135c:	bf 92       	push	r11
    135e:	df 92       	push	r13
    1360:	ef 92       	push	r14
    1362:	ff 92       	push	r15
    1364:	0f 93       	push	r16
    1366:	1f 93       	push	r17
    1368:	cf 93       	push	r28
    136a:	df 93       	push	r29
    136c:	00 d0       	rcall	.+0      	; 0x136e <SendSockContinue+0x14>
    136e:	cd b7       	in	r28, 0x3d	; 61
    1370:	de b7       	in	r29, 0x3e	; 62
    1372:	d8 2e       	mov	r13, r24
    1374:	8a 01       	movw	r16, r20
    1376:	90 e0       	ldi	r25, 0x00	; 0
    1378:	98 2f       	mov	r25, r24
    137a:	88 27       	eor	r24, r24
    137c:	5c 01       	movw	r10, r24
    137e:	2c ed       	ldi	r18, 0xDC	; 220
    1380:	a2 1a       	sub	r10, r18
    1382:	2b e7       	ldi	r18, 0x7B	; 123
    1384:	b2 0a       	sbc	r11, r18
    1386:	c5 01       	movw	r24, r10
    1388:	69 83       	std	Y+1, r22	; 0x01
    138a:	7a 83       	std	Y+2, r23	; 0x02
    138c:	b5 de       	rcall	.-662    	; 0x10f8 <ReadSockWord>
    138e:	7c 01       	movw	r14, r24
    1390:	98 01       	movw	r18, r16
    1392:	ac 01       	movw	r20, r24
    1394:	69 81       	ldd	r22, Y+1	; 0x01
    1396:	7a 81       	ldd	r23, Y+2	; 0x02
    1398:	8d 2d       	mov	r24, r13
    139a:	a7 df       	rcall	.-178    	; 0x12ea <WriteSock>
    139c:	b7 01       	movw	r22, r14
    139e:	60 0f       	add	r22, r16
    13a0:	71 1f       	adc	r23, r17
    13a2:	c5 01       	movw	r24, r10
    13a4:	0f 90       	pop	r0
    13a6:	0f 90       	pop	r0
    13a8:	df 91       	pop	r29
    13aa:	cf 91       	pop	r28
    13ac:	1f 91       	pop	r17
    13ae:	0f 91       	pop	r16
    13b0:	ff 90       	pop	r15
    13b2:	ef 90       	pop	r14
    13b4:	df 90       	pop	r13
    13b6:	bf 90       	pop	r11
    13b8:	af 90       	pop	r10
    13ba:	9a ce       	rjmp	.-716    	; 0x10f0 <WriteSockWord>

000013bc <ReadSock>:
    13bc:	cf 92       	push	r12
    13be:	df 92       	push	r13
    13c0:	ef 92       	push	r14
    13c2:	ff 92       	push	r15
    13c4:	0f 93       	push	r16
    13c6:	1f 93       	push	r17
    13c8:	cf 93       	push	r28
    13ca:	df 93       	push	r29
    13cc:	c8 2f       	mov	r28, r24
    13ce:	ca 01       	movw	r24, r20
    13d0:	fb 01       	movw	r30, r22
    13d2:	f7 70       	andi	r31, 0x07	; 7
    13d4:	d0 e0       	ldi	r29, 0x00	; 0
    13d6:	dc 2f       	mov	r29, r28
    13d8:	cc 27       	eor	r28, r28
    13da:	dd 0f       	add	r29, r29
    13dc:	dd 0f       	add	r29, r29
    13de:	dd 0f       	add	r29, r29
    13e0:	bf 01       	movw	r22, r30
    13e2:	6c 0f       	add	r22, r28
    13e4:	7d 1f       	adc	r23, r29
    13e6:	70 52       	subi	r23, 0x20	; 32
    13e8:	af 01       	movw	r20, r30
    13ea:	42 0f       	add	r20, r18
    13ec:	53 1f       	adc	r21, r19
    13ee:	41 30       	cpi	r20, 0x01	; 1
    13f0:	58 40       	sbci	r21, 0x08	; 8
    13f2:	a0 f0       	brcs	.+40     	; 0x141c <ReadSock+0x60>
    13f4:	89 01       	movw	r16, r18
    13f6:	7c 01       	movw	r14, r24
    13f8:	80 e0       	ldi	r24, 0x00	; 0
    13fa:	98 e0       	ldi	r25, 0x08	; 8
    13fc:	6c 01       	movw	r12, r24
    13fe:	ce 1a       	sub	r12, r30
    1400:	df 0a       	sbc	r13, r31
    1402:	a6 01       	movw	r20, r12
    1404:	c7 01       	movw	r24, r14
    1406:	0e 94 7f 17 	call	0x2efe	; 0x2efe <memcpy>
    140a:	a8 01       	movw	r20, r16
    140c:	4c 19       	sub	r20, r12
    140e:	5d 09       	sbc	r21, r13
    1410:	be 01       	movw	r22, r28
    1412:	70 52       	subi	r23, 0x20	; 32
    1414:	c7 01       	movw	r24, r14
    1416:	8c 0d       	add	r24, r12
    1418:	9d 1d       	adc	r25, r13
    141a:	01 c0       	rjmp	.+2      	; 0x141e <ReadSock+0x62>
    141c:	a9 01       	movw	r20, r18
    141e:	df 91       	pop	r29
    1420:	cf 91       	pop	r28
    1422:	1f 91       	pop	r17
    1424:	0f 91       	pop	r16
    1426:	ff 90       	pop	r15
    1428:	ef 90       	pop	r14
    142a:	df 90       	pop	r13
    142c:	cf 90       	pop	r12
    142e:	0c 94 7f 17 	jmp	0x2efe	; 0x2efe <memcpy>

00001432 <RecvSockContinue>:
    1432:	af 92       	push	r10
    1434:	bf 92       	push	r11
    1436:	df 92       	push	r13
    1438:	ef 92       	push	r14
    143a:	ff 92       	push	r15
    143c:	0f 93       	push	r16
    143e:	1f 93       	push	r17
    1440:	cf 93       	push	r28
    1442:	df 93       	push	r29
    1444:	d8 2e       	mov	r13, r24
    1446:	5b 01       	movw	r10, r22
    1448:	8a 01       	movw	r16, r20
    144a:	c8 2f       	mov	r28, r24
    144c:	d0 e0       	ldi	r29, 0x00	; 0
    144e:	dc 2f       	mov	r29, r28
    1450:	cc 27       	eor	r28, r28
    1452:	c8 5d       	subi	r28, 0xD8	; 216
    1454:	db 47       	sbci	r29, 0x7B	; 123
    1456:	ce 01       	movw	r24, r28
    1458:	4f de       	rcall	.-866    	; 0x10f8 <ReadSockWord>
    145a:	7c 01       	movw	r14, r24
    145c:	98 01       	movw	r18, r16
    145e:	a5 01       	movw	r20, r10
    1460:	bc 01       	movw	r22, r24
    1462:	8d 2d       	mov	r24, r13
    1464:	ab df       	rcall	.-170    	; 0x13bc <ReadSock>
    1466:	b7 01       	movw	r22, r14
    1468:	60 0f       	add	r22, r16
    146a:	71 1f       	adc	r23, r17
    146c:	ce 01       	movw	r24, r28
    146e:	df 91       	pop	r29
    1470:	cf 91       	pop	r28
    1472:	1f 91       	pop	r17
    1474:	0f 91       	pop	r16
    1476:	ff 90       	pop	r15
    1478:	ef 90       	pop	r14
    147a:	df 90       	pop	r13
    147c:	bf 90       	pop	r11
    147e:	af 90       	pop	r10
    1480:	37 ce       	rjmp	.-914    	; 0x10f0 <WriteSockWord>

00001482 <CloseSock>:
    1482:	90 e0       	ldi	r25, 0x00	; 0
    1484:	f8 2f       	mov	r31, r24
    1486:	ee 27       	eor	r30, r30
    1488:	ef 5f       	subi	r30, 0xFF	; 255
    148a:	fb 47       	sbci	r31, 0x7B	; 123
    148c:	20 e1       	ldi	r18, 0x10	; 16
    148e:	20 83       	st	Z, r18
    1490:	fc 01       	movw	r30, r24
    1492:	ec 59       	subi	r30, 0x9C	; 156
    1494:	f4 4f       	sbci	r31, 0xF4	; 244
    1496:	10 82       	st	Z, r1
    1498:	80 91 68 0b 	lds	r24, 0x0B68
    149c:	80 ff       	sbrs	r24, 0
    149e:	08 c0       	rjmp	.+16     	; 0x14b0 <CloseSock+0x2e>
    14a0:	80 e5       	ldi	r24, 0x50	; 80
    14a2:	94 e0       	ldi	r25, 0x04	; 4
    14a4:	9f 93       	push	r25
    14a6:	8f 93       	push	r24
    14a8:	0e 94 88 17 	call	0x2f10	; 0x2f10 <printf_P>
    14ac:	0f 90       	pop	r0
    14ae:	0f 90       	pop	r0
    14b0:	08 95       	ret

000014b2 <OpenSock>:
    14b2:	7f 92       	push	r7
    14b4:	8f 92       	push	r8
    14b6:	9f 92       	push	r9
    14b8:	af 92       	push	r10
    14ba:	bf 92       	push	r11
    14bc:	cf 92       	push	r12
    14be:	df 92       	push	r13
    14c0:	ef 92       	push	r14
    14c2:	ff 92       	push	r15
    14c4:	0f 93       	push	r16
    14c6:	1f 93       	push	r17
    14c8:	cf 93       	push	r28
    14ca:	df 93       	push	r29
    14cc:	88 2e       	mov	r8, r24
    14ce:	6a 01       	movw	r12, r20
    14d0:	e8 2f       	mov	r30, r24
    14d2:	f0 e0       	ldi	r31, 0x00	; 0
    14d4:	fe 2f       	mov	r31, r30
    14d6:	ee 27       	eor	r30, r30
    14d8:	5f 01       	movw	r10, r30
    14da:	8c e7       	ldi	r24, 0x7C	; 124
    14dc:	b8 1a       	sub	r11, r24
    14de:	7f 01       	movw	r14, r30
    14e0:	8c ef       	ldi	r24, 0xFC	; 252
    14e2:	e8 1a       	sub	r14, r24
    14e4:	8b e7       	ldi	r24, 0x7B	; 123
    14e6:	f8 0a       	sbc	r15, r24
    14e8:	8f 01       	movw	r16, r30
    14ea:	0f 5f       	subi	r16, 0xFF	; 255
    14ec:	1b 47       	sbci	r17, 0x7B	; 123
    14ee:	ef 01       	movw	r28, r30
    14f0:	cd 5f       	subi	r28, 0xFD	; 253
    14f2:	db 47       	sbci	r29, 0x7B	; 123
    14f4:	96 2e       	mov	r9, r22
    14f6:	92 2a       	or	r9, r18
    14f8:	77 24       	eor	r7, r7
    14fa:	73 94       	inc	r7
    14fc:	f5 01       	movw	r30, r10
    14fe:	90 82       	st	Z, r9
    1500:	b6 01       	movw	r22, r12
    1502:	c7 01       	movw	r24, r14
    1504:	f5 dd       	rcall	.-1046   	; 0x10f0 <WriteSockWord>
    1506:	f8 01       	movw	r30, r16
    1508:	70 82       	st	Z, r7
    150a:	f8 01       	movw	r30, r16
    150c:	80 81       	ld	r24, Z
    150e:	81 11       	cpse	r24, r1
    1510:	fc cf       	rjmp	.-8      	; 0x150a <OpenSock+0x58>
    1512:	88 81       	ld	r24, Y
    1514:	83 31       	cpi	r24, 0x13	; 19
    1516:	19 f0       	breq	.+6      	; 0x151e <OpenSock+0x6c>
    1518:	88 2d       	mov	r24, r8
    151a:	b3 df       	rcall	.-154    	; 0x1482 <CloseSock>
    151c:	ef cf       	rjmp	.-34     	; 0x14fc <OpenSock+0x4a>
    151e:	df 91       	pop	r29
    1520:	cf 91       	pop	r28
    1522:	1f 91       	pop	r17
    1524:	0f 91       	pop	r16
    1526:	ff 90       	pop	r15
    1528:	ef 90       	pop	r14
    152a:	df 90       	pop	r13
    152c:	cf 90       	pop	r12
    152e:	bf 90       	pop	r11
    1530:	af 90       	pop	r10
    1532:	9f 90       	pop	r9
    1534:	8f 90       	pop	r8
    1536:	7f 90       	pop	r7
    1538:	08 95       	ret

0000153a <ListenSock>:
    153a:	28 2f       	mov	r18, r24
    153c:	30 e0       	ldi	r19, 0x00	; 0
    153e:	32 2f       	mov	r19, r18
    1540:	22 27       	eor	r18, r18
    1542:	d9 01       	movw	r26, r18
    1544:	ad 5f       	subi	r26, 0xFD	; 253
    1546:	bb 47       	sbci	r27, 0x7B	; 123
    1548:	9c 91       	ld	r25, X
    154a:	93 31       	cpi	r25, 0x13	; 19
    154c:	49 f4       	brne	.+18     	; 0x1560 <ListenSock+0x26>
    154e:	f9 01       	movw	r30, r18
    1550:	ef 5f       	subi	r30, 0xFF	; 255
    1552:	fb 47       	sbci	r31, 0x7B	; 123
    1554:	92 e0       	ldi	r25, 0x02	; 2
    1556:	90 83       	st	Z, r25
    1558:	9c 91       	ld	r25, X
    155a:	94 31       	cpi	r25, 0x14	; 20
    155c:	19 f0       	breq	.+6      	; 0x1564 <ListenSock+0x2a>
    155e:	91 df       	rcall	.-222    	; 0x1482 <CloseSock>
    1560:	80 e0       	ldi	r24, 0x00	; 0
    1562:	08 95       	ret
    1564:	81 e0       	ldi	r24, 0x01	; 1
    1566:	08 95       	ret

00001568 <DisconnectSock>:
    1568:	e8 2f       	mov	r30, r24
    156a:	f0 e0       	ldi	r31, 0x00	; 0
    156c:	fe 2f       	mov	r31, r30
    156e:	ee 27       	eor	r30, r30
    1570:	ef 5f       	subi	r30, 0xFF	; 255
    1572:	fb 47       	sbci	r31, 0x7B	; 123
    1574:	88 e0       	ldi	r24, 0x08	; 8
    1576:	80 83       	st	Z, r24
    1578:	80 81       	ld	r24, Z
    157a:	81 11       	cpse	r24, r1
    157c:	fd cf       	rjmp	.-6      	; 0x1578 <DisconnectSock+0x10>
    157e:	08 95       	ret

00001580 <SendSock>:
    1580:	8f 92       	push	r8
    1582:	9f 92       	push	r9
    1584:	af 92       	push	r10
    1586:	bf 92       	push	r11
    1588:	cf 92       	push	r12
    158a:	df 92       	push	r13
    158c:	ff 92       	push	r15
    158e:	0f 93       	push	r16
    1590:	1f 93       	push	r17
    1592:	cf 93       	push	r28
    1594:	df 93       	push	r29
    1596:	f8 2e       	mov	r15, r24
    1598:	4b 01       	movw	r8, r22
    159a:	ea 01       	movw	r28, r20
    159c:	41 30       	cpi	r20, 0x01	; 1
    159e:	58 40       	sbci	r21, 0x08	; 8
    15a0:	18 f0       	brcs	.+6      	; 0x15a8 <SendSock+0x28>
    15a2:	8f 2d       	mov	r24, r15
    15a4:	4a de       	rcall	.-876    	; 0x123a <GetSockTxFreeSize>
    15a6:	ec 01       	movw	r28, r24
    15a8:	0f 2d       	mov	r16, r15
    15aa:	10 e0       	ldi	r17, 0x00	; 0
    15ac:	d0 2e       	mov	r13, r16
    15ae:	cc 24       	eor	r12, r12
    15b0:	56 01       	movw	r10, r12
    15b2:	ed ef       	ldi	r30, 0xFD	; 253
    15b4:	ae 1a       	sub	r10, r30
    15b6:	eb e7       	ldi	r30, 0x7B	; 123
    15b8:	be 0a       	sbc	r11, r30
    15ba:	8f 2d       	mov	r24, r15
    15bc:	3e de       	rcall	.-900    	; 0x123a <GetSockTxFreeSize>
    15be:	f5 01       	movw	r30, r10
    15c0:	20 81       	ld	r18, Z
    15c2:	30 e0       	ldi	r19, 0x00	; 0
    15c4:	27 31       	cpi	r18, 0x17	; 23
    15c6:	31 05       	cpc	r19, r1
    15c8:	19 f0       	breq	.+6      	; 0x15d0 <SendSock+0x50>
    15ca:	2c 31       	cpi	r18, 0x1C	; 28
    15cc:	31 05       	cpc	r19, r1
    15ce:	21 f4       	brne	.+8      	; 0x15d8 <SendSock+0x58>
    15d0:	8c 17       	cp	r24, r28
    15d2:	9d 07       	cpc	r25, r29
    15d4:	90 f3       	brcs	.-28     	; 0x15ba <SendSock+0x3a>
    15d6:	02 c0       	rjmp	.+4      	; 0x15dc <SendSock+0x5c>
    15d8:	c0 e0       	ldi	r28, 0x00	; 0
    15da:	d0 e0       	ldi	r29, 0x00	; 0
    15dc:	ae 01       	movw	r20, r28
    15de:	b4 01       	movw	r22, r8
    15e0:	8f 2d       	mov	r24, r15
    15e2:	bb de       	rcall	.-650    	; 0x135a <SendSockContinue>
    15e4:	f6 01       	movw	r30, r12
    15e6:	ef 5f       	subi	r30, 0xFF	; 255
    15e8:	fb 47       	sbci	r31, 0x7B	; 123
    15ea:	80 e2       	ldi	r24, 0x20	; 32
    15ec:	80 83       	st	Z, r24
    15ee:	80 81       	ld	r24, Z
    15f0:	81 11       	cpse	r24, r1
    15f2:	fd cf       	rjmp	.-6      	; 0x15ee <SendSock+0x6e>
    15f4:	f8 01       	movw	r30, r16
    15f6:	ec 59       	subi	r30, 0x9C	; 156
    15f8:	f4 4f       	sbci	r31, 0xF4	; 244
    15fa:	80 81       	ld	r24, Z
    15fc:	84 fd       	sbrc	r24, 4
    15fe:	09 c0       	rjmp	.+18     	; 0x1612 <SendSock+0x92>
    1600:	f5 01       	movw	r30, r10
    1602:	80 81       	ld	r24, Z
    1604:	81 11       	cpse	r24, r1
    1606:	fc cf       	rjmp	.-8      	; 0x1600 <SendSock+0x80>
    1608:	8f 2d       	mov	r24, r15
    160a:	3b df       	rcall	.-394    	; 0x1482 <CloseSock>
    160c:	80 e0       	ldi	r24, 0x00	; 0
    160e:	90 e0       	ldi	r25, 0x00	; 0
    1610:	03 c0       	rjmp	.+6      	; 0x1618 <SendSock+0x98>
    1612:	8f 7e       	andi	r24, 0xEF	; 239
    1614:	80 83       	st	Z, r24
    1616:	ce 01       	movw	r24, r28
    1618:	df 91       	pop	r29
    161a:	cf 91       	pop	r28
    161c:	1f 91       	pop	r17
    161e:	0f 91       	pop	r16
    1620:	ff 90       	pop	r15
    1622:	df 90       	pop	r13
    1624:	cf 90       	pop	r12
    1626:	bf 90       	pop	r11
    1628:	af 90       	pop	r10
    162a:	9f 90       	pop	r9
    162c:	8f 90       	pop	r8
    162e:	08 95       	ret

00001630 <RecvSock>:
    1630:	0f 93       	push	r16
    1632:	1f 93       	push	r17
    1634:	cf 93       	push	r28
    1636:	c8 2f       	mov	r28, r24
    1638:	8a 01       	movw	r16, r20
    163a:	41 15       	cp	r20, r1
    163c:	51 05       	cpc	r21, r1
    163e:	61 f0       	breq	.+24     	; 0x1658 <RecvSock+0x28>
    1640:	f8 de       	rcall	.-528    	; 0x1432 <RecvSockContinue>
    1642:	ec 2f       	mov	r30, r28
    1644:	f0 e0       	ldi	r31, 0x00	; 0
    1646:	fe 2f       	mov	r31, r30
    1648:	ee 27       	eor	r30, r30
    164a:	ef 5f       	subi	r30, 0xFF	; 255
    164c:	fb 47       	sbci	r31, 0x7B	; 123
    164e:	80 e4       	ldi	r24, 0x40	; 64
    1650:	80 83       	st	Z, r24
    1652:	80 81       	ld	r24, Z
    1654:	81 11       	cpse	r24, r1
    1656:	fd cf       	rjmp	.-6      	; 0x1652 <RecvSock+0x22>
    1658:	c8 01       	movw	r24, r16
    165a:	cf 91       	pop	r28
    165c:	1f 91       	pop	r17
    165e:	0f 91       	pop	r16
    1660:	08 95       	ret

00001662 <SockISR>:
    1662:	80 91 15 80 	lds	r24, 0x8015
    1666:	20 ee       	ldi	r18, 0xE0	; 224
    1668:	87 fd       	sbrc	r24, 7
    166a:	03 c0       	rjmp	.+6      	; 0x1672 <SockISR+0x10>
    166c:	98 2f       	mov	r25, r24
    166e:	90 76       	andi	r25, 0x60	; 96
    1670:	11 f0       	breq	.+4      	; 0x1676 <SockISR+0x14>
    1672:	20 93 15 80 	sts	0x8015, r18
    1676:	80 ff       	sbrs	r24, 0
    1678:	09 c0       	rjmp	.+18     	; 0x168c <SockISR+0x2a>
    167a:	30 91 02 84 	lds	r19, 0x8402
    167e:	90 91 64 0b 	lds	r25, 0x0B64
    1682:	93 2b       	or	r25, r19
    1684:	90 93 64 0b 	sts	0x0B64, r25
    1688:	90 93 02 84 	sts	0x8402, r25
    168c:	81 ff       	sbrs	r24, 1
    168e:	09 c0       	rjmp	.+18     	; 0x16a2 <SockISR+0x40>
    1690:	30 91 02 85 	lds	r19, 0x8502
    1694:	90 91 65 0b 	lds	r25, 0x0B65
    1698:	93 2b       	or	r25, r19
    169a:	90 93 65 0b 	sts	0x0B65, r25
    169e:	90 93 02 85 	sts	0x8502, r25
    16a2:	82 ff       	sbrs	r24, 2
    16a4:	09 c0       	rjmp	.+18     	; 0x16b8 <SockISR+0x56>
    16a6:	30 91 02 86 	lds	r19, 0x8602
    16aa:	90 91 66 0b 	lds	r25, 0x0B66
    16ae:	93 2b       	or	r25, r19
    16b0:	90 93 66 0b 	sts	0x0B66, r25
    16b4:	90 93 02 86 	sts	0x8602, r25
    16b8:	83 ff       	sbrs	r24, 3
    16ba:	09 c0       	rjmp	.+18     	; 0x16ce <SockISR+0x6c>
    16bc:	90 91 02 87 	lds	r25, 0x8702
    16c0:	80 91 67 0b 	lds	r24, 0x0B67
    16c4:	89 2b       	or	r24, r25
    16c6:	80 93 67 0b 	sts	0x0B67, r24
    16ca:	80 93 02 87 	sts	0x8702, r24
    16ce:	80 91 15 80 	lds	r24, 0x8015
    16d2:	81 11       	cpse	r24, r1
    16d4:	c9 cf       	rjmp	.-110    	; 0x1668 <SockISR+0x6>
    16d6:	08 95       	ret

000016d8 <PutChar>:
    16d8:	5d 9b       	sbis	0x0b, 5	; 11
    16da:	fe cf       	rjmp	.-4      	; 0x16d8 <PutChar>
    16dc:	8c b9       	out	0x0c, r24	; 12
    16de:	80 e0       	ldi	r24, 0x00	; 0
    16e0:	90 e0       	ldi	r25, 0x00	; 0
    16e2:	08 95       	ret

000016e4 <AbstractCmd>:
    16e4:	7f 92       	push	r7
    16e6:	8f 92       	push	r8
    16e8:	9f 92       	push	r9
    16ea:	af 92       	push	r10
    16ec:	bf 92       	push	r11
    16ee:	cf 92       	push	r12
    16f0:	df 92       	push	r13
    16f2:	ef 92       	push	r14
    16f4:	ff 92       	push	r15
    16f6:	0f 93       	push	r16
    16f8:	1f 93       	push	r17
    16fa:	cf 93       	push	r28
    16fc:	df 93       	push	r29
    16fe:	cd b7       	in	r28, 0x3d	; 61
    1700:	de b7       	in	r29, 0x3e	; 62
    1702:	2c 97       	sbiw	r28, 0x0c	; 12
    1704:	0f b6       	in	r0, 0x3f	; 63
    1706:	f8 94       	cli
    1708:	de bf       	out	0x3e, r29	; 62
    170a:	0f be       	out	0x3f, r0	; 63
    170c:	cd bf       	out	0x3d, r28	; 61
    170e:	dc 01       	movw	r26, r24
    1710:	11 96       	adiw	r26, 0x01	; 1
    1712:	20 e0       	ldi	r18, 0x00	; 0
    1714:	30 e0       	ldi	r19, 0x00	; 0
    1716:	75 e0       	ldi	r23, 0x05	; 5
    1718:	e6 2e       	mov	r14, r22
    171a:	f1 2c       	mov	r15, r1
    171c:	92 2e       	mov	r9, r18
    171e:	26 17       	cp	r18, r22
    1720:	08 f0       	brcs	.+2      	; 0x1724 <AbstractCmd+0x40>
    1722:	6c c0       	rjmp	.+216    	; 0x17fc <AbstractCmd+0x118>
    1724:	88 2e       	mov	r8, r24
    1726:	79 2e       	mov	r7, r25
    1728:	fc 01       	movw	r30, r24
    172a:	01 91       	ld	r16, Z+
    172c:	cf 01       	movw	r24, r30
    172e:	5d 91       	ld	r21, X+
    1730:	5b 87       	std	Y+11, r21	; 0x0b
    1732:	1c 91       	ld	r17, X
    1734:	50 35       	cpi	r21, 0x50	; 80
    1736:	08 f0       	brcs	.+2      	; 0x173a <AbstractCmd+0x56>
    1738:	5d c0       	rjmp	.+186    	; 0x17f4 <AbstractCmd+0x110>
    173a:	e5 2f       	mov	r30, r21
    173c:	ef 70       	andi	r30, 0x0F	; 15
    173e:	ce 2e       	mov	r12, r30
    1740:	d1 2c       	mov	r13, r1
    1742:	aa 24       	eor	r10, r10
    1744:	a3 94       	inc	r10
    1746:	b1 2c       	mov	r11, r1
    1748:	44 23       	and	r20, r20
    174a:	11 f0       	breq	.+4      	; 0x1750 <AbstractCmd+0x6c>
    174c:	a1 2c       	mov	r10, r1
    174e:	b1 2c       	mov	r11, r1
    1750:	7a 9d       	mul	r23, r10
    1752:	f0 01       	movw	r30, r0
    1754:	7b 9d       	mul	r23, r11
    1756:	f0 0d       	add	r31, r0
    1758:	11 24       	eor	r1, r1
    175a:	bb 84       	ldd	r11, Y+11	; 0x0b
    175c:	b6 94       	lsr	r11
    175e:	b6 94       	lsr	r11
    1760:	b6 94       	lsr	r11
    1762:	b6 94       	lsr	r11
    1764:	eb 0d       	add	r30, r11
    1766:	f1 1d       	adc	r31, r1
    1768:	e2 95       	swap	r30
    176a:	f2 95       	swap	r31
    176c:	f0 7f       	andi	r31, 0xF0	; 240
    176e:	fe 27       	eor	r31, r30
    1770:	e0 7f       	andi	r30, 0xF0	; 240
    1772:	fe 27       	eor	r31, r30
    1774:	ec 0d       	add	r30, r12
    1776:	fd 1d       	adc	r31, r13
    1778:	ea 5a       	subi	r30, 0xAA	; 170
    177a:	f9 4f       	sbci	r31, 0xF9	; 249
    177c:	e4 91       	lpm	r30, Z
    177e:	ef 3f       	cpi	r30, 0xFF	; 255
    1780:	11 f0       	breq	.+4      	; 0x1786 <AbstractCmd+0xa2>
    1782:	e0 13       	cpse	r30, r16
    1784:	37 c0       	rjmp	.+110    	; 0x17f4 <AbstractCmd+0x110>
    1786:	e0 2f       	mov	r30, r16
    1788:	f0 e0       	ldi	r31, 0x00	; 0
    178a:	69 01       	movw	r12, r18
    178c:	ce 0e       	add	r12, r30
    178e:	df 1e       	adc	r13, r31
    1790:	ec 14       	cp	r14, r12
    1792:	fd 04       	cpc	r15, r13
    1794:	7c f1       	brlt	.+94     	; 0x17f4 <AbstractCmd+0x110>
    1796:	02 30       	cpi	r16, 0x02	; 2
    1798:	b0 f4       	brcc	.+44     	; 0x17c6 <AbstractCmd+0xe2>
    179a:	80 91 68 0b 	lds	r24, 0x0B68
    179e:	82 ff       	sbrs	r24, 2
    17a0:	24 c0       	rjmp	.+72     	; 0x17ea <AbstractCmd+0x106>
    17a2:	1f 92       	push	r1
    17a4:	1f 93       	push	r17
    17a6:	1f 92       	push	r1
    17a8:	5f 93       	push	r21
    17aa:	ff 93       	push	r31
    17ac:	ef 93       	push	r30
    17ae:	8b e8       	ldi	r24, 0x8B	; 139
    17b0:	94 e0       	ldi	r25, 0x04	; 4
    17b2:	9f 93       	push	r25
    17b4:	8f 93       	push	r24
    17b6:	0e 94 88 17 	call	0x2f10	; 0x2f10 <printf_P>
    17ba:	0f b6       	in	r0, 0x3f	; 63
    17bc:	f8 94       	cli
    17be:	de bf       	out	0x3e, r29	; 62
    17c0:	0f be       	out	0x3f, r0	; 63
    17c2:	cd bf       	out	0x3d, r28	; 61
    17c4:	12 c0       	rjmp	.+36     	; 0x17ea <AbstractCmd+0x106>
    17c6:	d1 2e       	mov	r13, r17
    17c8:	d6 94       	lsr	r13
    17ca:	d6 94       	lsr	r13
    17cc:	d6 94       	lsr	r13
    17ce:	d6 94       	lsr	r13
    17d0:	0f 2e       	mov	r0, r31
    17d2:	f5 e0       	ldi	r31, 0x05	; 5
    17d4:	cf 2e       	mov	r12, r31
    17d6:	f0 2d       	mov	r31, r0
    17d8:	dc 14       	cp	r13, r12
    17da:	f9 f2       	breq	.-66     	; 0x179a <AbstractCmd+0xb6>
    17dc:	0f 2e       	mov	r0, r31
    17de:	fa e0       	ldi	r31, 0x0A	; 10
    17e0:	cf 2e       	mov	r12, r31
    17e2:	f0 2d       	mov	r31, r0
    17e4:	dc 10       	cpse	r13, r12
    17e6:	06 c0       	rjmp	.+12     	; 0x17f4 <AbstractCmd+0x110>
    17e8:	d8 cf       	rjmp	.-80     	; 0x179a <AbstractCmd+0xb6>
    17ea:	8f 82       	std	Y+7, r8	; 0x07
    17ec:	78 86       	std	Y+8, r7	; 0x08
    17ee:	99 86       	std	Y+9, r9	; 0x09
    17f0:	0a 87       	std	Y+10, r16	; 0x0a
    17f2:	1c c0       	rjmp	.+56     	; 0x182c <AbstractCmd+0x148>
    17f4:	2f 5f       	subi	r18, 0xFF	; 255
    17f6:	3f 4f       	sbci	r19, 0xFF	; 255
    17f8:	09 2d       	mov	r16, r9
    17fa:	90 cf       	rjmp	.-224    	; 0x171c <AbstractCmd+0x38>
    17fc:	80 91 68 0b 	lds	r24, 0x0B68
    1800:	82 ff       	sbrs	r24, 2
    1802:	10 c0       	rjmp	.+32     	; 0x1824 <AbstractCmd+0x140>
    1804:	1f 92       	push	r1
    1806:	6f 93       	push	r22
    1808:	1f 92       	push	r1
    180a:	2f 93       	push	r18
    180c:	80 e7       	ldi	r24, 0x70	; 112
    180e:	94 e0       	ldi	r25, 0x04	; 4
    1810:	9f 93       	push	r25
    1812:	8f 93       	push	r24
    1814:	0e 94 88 17 	call	0x2f10	; 0x2f10 <printf_P>
    1818:	0f 90       	pop	r0
    181a:	0f 90       	pop	r0
    181c:	0f 90       	pop	r0
    181e:	0f 90       	pop	r0
    1820:	0f 90       	pop	r0
    1822:	0f 90       	pop	r0
    1824:	18 86       	std	Y+8, r1	; 0x08
    1826:	1f 82       	std	Y+7, r1	; 0x07
    1828:	09 87       	std	Y+9, r16	; 0x09
    182a:	1a 86       	std	Y+10, r1	; 0x0a
    182c:	1c 87       	std	Y+12, r17	; 0x0c
    182e:	86 e0       	ldi	r24, 0x06	; 6
    1830:	fe 01       	movw	r30, r28
    1832:	37 96       	adiw	r30, 0x07	; 7
    1834:	de 01       	movw	r26, r28
    1836:	11 96       	adiw	r26, 0x01	; 1
    1838:	01 90       	ld	r0, Z+
    183a:	0d 92       	st	X+, r0
    183c:	8a 95       	dec	r24
    183e:	e1 f7       	brne	.-8      	; 0x1838 <AbstractCmd+0x154>
    1840:	29 81       	ldd	r18, Y+1	; 0x01
    1842:	3a 81       	ldd	r19, Y+2	; 0x02
    1844:	4b 81       	ldd	r20, Y+3	; 0x03
    1846:	5c 81       	ldd	r21, Y+4	; 0x04
    1848:	6d 81       	ldd	r22, Y+5	; 0x05
    184a:	7e 81       	ldd	r23, Y+6	; 0x06
    184c:	80 e0       	ldi	r24, 0x00	; 0
    184e:	90 e0       	ldi	r25, 0x00	; 0
    1850:	2c 96       	adiw	r28, 0x0c	; 12
    1852:	0f b6       	in	r0, 0x3f	; 63
    1854:	f8 94       	cli
    1856:	de bf       	out	0x3e, r29	; 62
    1858:	0f be       	out	0x3f, r0	; 63
    185a:	cd bf       	out	0x3d, r28	; 61
    185c:	df 91       	pop	r29
    185e:	cf 91       	pop	r28
    1860:	1f 91       	pop	r17
    1862:	0f 91       	pop	r16
    1864:	ff 90       	pop	r15
    1866:	ef 90       	pop	r14
    1868:	df 90       	pop	r13
    186a:	cf 90       	pop	r12
    186c:	bf 90       	pop	r11
    186e:	af 90       	pop	r10
    1870:	9f 90       	pop	r9
    1872:	8f 90       	pop	r8
    1874:	7f 90       	pop	r7
    1876:	08 95       	ret

00001878 <Shift>:
    1878:	dc 01       	movw	r26, r24
    187a:	ab 01       	movw	r20, r22
    187c:	48 1b       	sub	r20, r24
    187e:	59 0b       	sbc	r21, r25
    1880:	fd 01       	movw	r30, r26
    1882:	e8 1b       	sub	r30, r24
    1884:	f9 0b       	sbc	r31, r25
    1886:	9a 01       	movw	r18, r20
    1888:	2a 0f       	add	r18, r26
    188a:	3b 1f       	adc	r19, r27
    188c:	2f 3f       	cpi	r18, 0xFF	; 255
    188e:	31 05       	cpc	r19, r1
    1890:	09 f0       	breq	.+2      	; 0x1894 <Shift+0x1c>
    1892:	34 f4       	brge	.+12     	; 0x18a0 <Shift+0x28>
    1894:	fd 01       	movw	r30, r26
    1896:	e6 0f       	add	r30, r22
    1898:	f7 1f       	adc	r31, r23
    189a:	20 81       	ld	r18, Z
    189c:	2d 93       	st	X+, r18
    189e:	f0 cf       	rjmp	.-32     	; 0x1880 <Shift+0x8>
    18a0:	e8 0f       	add	r30, r24
    18a2:	f9 1f       	adc	r31, r25
    18a4:	9f 01       	movw	r18, r30
    18a6:	28 1b       	sub	r18, r24
    18a8:	39 0b       	sbc	r19, r25
    18aa:	2f 3f       	cpi	r18, 0xFF	; 255
    18ac:	31 05       	cpc	r19, r1
    18ae:	09 f0       	breq	.+2      	; 0x18b2 <Shift+0x3a>
    18b0:	14 f4       	brge	.+4      	; 0x18b6 <Shift+0x3e>
    18b2:	11 92       	st	Z+, r1
    18b4:	f7 cf       	rjmp	.-18     	; 0x18a4 <Shift+0x2c>
    18b6:	08 95       	ret

000018b8 <PrintIP>:
    18b8:	0f 93       	push	r16
    18ba:	1f 93       	push	r17
    18bc:	9b 01       	movw	r18, r22
    18be:	33 27       	eor	r19, r19
    18c0:	3f 93       	push	r19
    18c2:	2f 93       	push	r18
    18c4:	07 2f       	mov	r16, r23
    18c6:	18 2f       	mov	r17, r24
    18c8:	29 2f       	mov	r18, r25
    18ca:	33 27       	eor	r19, r19
    18cc:	11 27       	eor	r17, r17
    18ce:	1f 93       	push	r17
    18d0:	0f 93       	push	r16
    18d2:	30 e0       	ldi	r19, 0x00	; 0
    18d4:	3f 93       	push	r19
    18d6:	8f 93       	push	r24
    18d8:	89 2f       	mov	r24, r25
    18da:	99 27       	eor	r25, r25
    18dc:	aa 27       	eor	r26, r26
    18de:	bb 27       	eor	r27, r27
    18e0:	bc 01       	movw	r22, r24
    18e2:	77 27       	eor	r23, r23
    18e4:	7f 93       	push	r23
    18e6:	6f 93       	push	r22
    18e8:	84 e6       	ldi	r24, 0x64	; 100
    18ea:	94 e0       	ldi	r25, 0x04	; 4
    18ec:	9f 93       	push	r25
    18ee:	8f 93       	push	r24
    18f0:	0e 94 88 17 	call	0x2f10	; 0x2f10 <printf_P>
    18f4:	8d b7       	in	r24, 0x3d	; 61
    18f6:	9e b7       	in	r25, 0x3e	; 62
    18f8:	0a 96       	adiw	r24, 0x0a	; 10
    18fa:	0f b6       	in	r0, 0x3f	; 63
    18fc:	f8 94       	cli
    18fe:	9e bf       	out	0x3e, r25	; 62
    1900:	0f be       	out	0x3f, r0	; 63
    1902:	8d bf       	out	0x3d, r24	; 61
    1904:	1f 91       	pop	r17
    1906:	0f 91       	pop	r16
    1908:	08 95       	ret

0000190a <PreSend>:
    190a:	ef 92       	push	r14
    190c:	ff 92       	push	r15
    190e:	1f 93       	push	r17
    1910:	cf 93       	push	r28
    1912:	df 93       	push	r29
    1914:	18 2f       	mov	r17, r24
    1916:	5d d9       	rcall	.-3398   	; 0xbd2 <GetSccBuf>
    1918:	ec 01       	movw	r28, r24
    191a:	88 81       	ld	r24, Y
    191c:	98 2f       	mov	r25, r24
    191e:	9f 72       	andi	r25, 0x2F	; 47
    1920:	90 32       	cpi	r25, 0x20	; 32
    1922:	31 f4       	brne	.+12     	; 0x1930 <PreSend+0x26>
    1924:	9c 81       	ldd	r25, Y+4	; 0x04
    1926:	9f 5f       	subi	r25, 0xFF	; 255
    1928:	9c 83       	std	Y+4, r25	; 0x04
    192a:	9d 81       	ldd	r25, Y+5	; 0x05
    192c:	9f 5f       	subi	r25, 0xFF	; 255
    192e:	9d 83       	std	Y+5, r25	; 0x05
    1930:	9b 81       	ldd	r25, Y+3	; 0x03
    1932:	90 73       	andi	r25, 0x30	; 48
    1934:	90 32       	cpi	r25, 0x20	; 32
    1936:	a1 f4       	brne	.+40     	; 0x1960 <PreSend+0x56>
    1938:	7e 01       	movw	r14, r28
    193a:	85 e8       	ldi	r24, 0x85	; 133
    193c:	e8 0e       	add	r14, r24
    193e:	f1 1c       	adc	r15, r1
    1940:	f7 01       	movw	r30, r14
    1942:	60 81       	ld	r22, Z
    1944:	70 e0       	ldi	r23, 0x00	; 0
    1946:	62 50       	subi	r22, 0x02	; 2
    1948:	71 09       	sbc	r23, r1
    194a:	ce 01       	movw	r24, r28
    194c:	04 96       	adiw	r24, 0x04	; 4
    194e:	0e 94 02 04 	call	0x804	; 0x804 <Crc16>
    1952:	f7 01       	movw	r30, r14
    1954:	20 81       	ld	r18, Z
    1956:	c2 0f       	add	r28, r18
    1958:	d1 1d       	adc	r29, r1
    195a:	8a 83       	std	Y+2, r24	; 0x02
    195c:	9b 83       	std	Y+3, r25	; 0x03
    195e:	15 c0       	rjmp	.+42     	; 0x198a <PreSend+0x80>
    1960:	90 33       	cpi	r25, 0x30	; 48
    1962:	99 f4       	brne	.+38     	; 0x198a <PreSend+0x80>
    1964:	8f 70       	andi	r24, 0x0F	; 15
    1966:	38 da       	rcall	.-2960   	; 0xdd8 <GetDeviceAddress>
    1968:	28 81       	ld	r18, Y
    196a:	2f 70       	andi	r18, 0x0F	; 15
    196c:	2a 50       	subi	r18, 0x0A	; 10
    196e:	8c 83       	std	Y+4, r24	; 0x04
    1970:	22 30       	cpi	r18, 0x02	; 2
    1972:	30 f4       	brcc	.+12     	; 0x1980 <PreSend+0x76>
    1974:	fe 01       	movw	r30, r28
    1976:	e8 57       	subi	r30, 0x78	; 120
    1978:	ff 4f       	sbci	r31, 0xFF	; 255
    197a:	80 81       	ld	r24, Z
    197c:	8d 83       	std	Y+5, r24	; 0x05
    197e:	01 c0       	rjmp	.+2      	; 0x1982 <PreSend+0x78>
    1980:	9d 83       	std	Y+5, r25	; 0x05
    1982:	83 e1       	ldi	r24, 0x13	; 19
    1984:	8e 83       	std	Y+6, r24	; 0x06
    1986:	80 e3       	ldi	r24, 0x30	; 48
    1988:	8f 83       	std	Y+7, r24	; 0x07
    198a:	81 2f       	mov	r24, r17
    198c:	df 91       	pop	r29
    198e:	cf 91       	pop	r28
    1990:	1f 91       	pop	r17
    1992:	ff 90       	pop	r15
    1994:	ef 90       	pop	r14
    1996:	28 c9       	rjmp	.-3504   	; 0xbe8 <SendScc>

00001998 <RecvReport>:
    1998:	cf 93       	push	r28
    199a:	df 93       	push	r29
    199c:	d8 2f       	mov	r29, r24
    199e:	8a e0       	ldi	r24, 0x0A	; 10
    19a0:	91 e0       	ldi	r25, 0x01	; 1
    19a2:	d8 9f       	mul	r29, r24
    19a4:	b0 01       	movw	r22, r0
    19a6:	d9 9f       	mul	r29, r25
    19a8:	70 0d       	add	r23, r0
    19aa:	11 24       	eor	r1, r1
    19ac:	fb 01       	movw	r30, r22
    19ae:	ea 5e       	subi	r30, 0xEA	; 234
    19b0:	fd 4f       	sbci	r31, 0xFD	; 253
    19b2:	c0 81       	ld	r28, Z
    19b4:	4c 2f       	mov	r20, r28
    19b6:	50 e0       	ldi	r21, 0x00	; 0
    19b8:	6a 56       	subi	r22, 0x6A	; 106
    19ba:	7e 4f       	sbci	r23, 0xFE	; 254
    19bc:	87 e6       	ldi	r24, 0x67	; 103
    19be:	9a e0       	ldi	r25, 0x0A	; 10
    19c0:	0e 94 7f 17 	call	0x2efe	; 0x2efe <memcpy>
    19c4:	ce 5f       	subi	r28, 0xFE	; 254
    19c6:	c0 93 64 0a 	sts	0x0A64, r28
    19ca:	85 e1       	ldi	r24, 0x15	; 21
    19cc:	80 93 65 0a 	sts	0x0A65, r24
    19d0:	d0 6a       	ori	r29, 0xA0	; 160
    19d2:	d0 93 66 0a 	sts	0x0A66, r29
    19d6:	4c 2f       	mov	r20, r28
    19d8:	50 e0       	ldi	r21, 0x00	; 0
    19da:	4f 5f       	subi	r20, 0xFF	; 255
    19dc:	5f 4f       	sbci	r21, 0xFF	; 255
    19de:	64 e6       	ldi	r22, 0x64	; 100
    19e0:	7a e0       	ldi	r23, 0x0A	; 10
    19e2:	80 e0       	ldi	r24, 0x00	; 0
    19e4:	df 91       	pop	r29
    19e6:	cf 91       	pop	r28
    19e8:	cb cd       	rjmp	.-1130   	; 0x1580 <SendSock>

000019ea <HostCommand>:
    19ea:	9f 92       	push	r9
    19ec:	af 92       	push	r10
    19ee:	bf 92       	push	r11
    19f0:	cf 92       	push	r12
    19f2:	df 92       	push	r13
    19f4:	ef 92       	push	r14
    19f6:	ff 92       	push	r15
    19f8:	0f 93       	push	r16
    19fa:	1f 93       	push	r17
    19fc:	cf 93       	push	r28
    19fe:	df 93       	push	r29
    1a00:	cd b7       	in	r28, 0x3d	; 61
    1a02:	de b7       	in	r29, 0x3e	; 62
    1a04:	28 97       	sbiw	r28, 0x08	; 8
    1a06:	0f b6       	in	r0, 0x3f	; 63
    1a08:	f8 94       	cli
    1a0a:	de bf       	out	0x3e, r29	; 62
    1a0c:	0f be       	out	0x3f, r0	; 63
    1a0e:	cd bf       	out	0x3d, r28	; 61
    1a10:	41 e0       	ldi	r20, 0x01	; 1
    1a12:	60 91 60 09 	lds	r22, 0x0960
    1a16:	82 e6       	ldi	r24, 0x62	; 98
    1a18:	99 e0       	ldi	r25, 0x09	; 9
    1a1a:	64 de       	rcall	.-824    	; 0x16e4 <AbstractCmd>
    1a1c:	94 2e       	mov	r9, r20
    1a1e:	06 2f       	mov	r16, r22
    1a20:	29 83       	std	Y+1, r18	; 0x01
    1a22:	3a 83       	std	Y+2, r19	; 0x02
    1a24:	4b 83       	std	Y+3, r20	; 0x03
    1a26:	5c 83       	std	Y+4, r21	; 0x04
    1a28:	6d 83       	std	Y+5, r22	; 0x05
    1a2a:	7e 83       	std	Y+6, r23	; 0x06
    1a2c:	c9 80       	ldd	r12, Y+1	; 0x01
    1a2e:	da 80       	ldd	r13, Y+2	; 0x02
    1a30:	c1 14       	cp	r12, r1
    1a32:	d1 04       	cpc	r13, r1
    1a34:	29 f4       	brne	.+10     	; 0x1a40 <HostCommand+0x56>
    1a36:	10 92 61 09 	sts	0x0961, r1
    1a3a:	10 92 60 09 	sts	0x0960, r1
    1a3e:	07 c1       	rjmp	.+526    	; 0x1c4e <HostCommand+0x264>
    1a40:	80 91 80 0d 	lds	r24, 0x0D80
    1a44:	82 95       	swap	r24
    1a46:	8f 70       	andi	r24, 0x0F	; 15
    1a48:	e5 2e       	mov	r14, r21
    1a4a:	f1 2c       	mov	r15, r1
    1a4c:	c1 f4       	brne	.+48     	; 0x1a7e <HostCommand+0x94>
    1a4e:	80 91 79 0c 	lds	r24, 0x0C79
    1a52:	90 91 7a 0c 	lds	r25, 0x0C7A
    1a56:	87 01       	movw	r16, r14
    1a58:	0f 5f       	subi	r16, 0xFF	; 255
    1a5a:	1f 4f       	sbci	r17, 0xFF	; 255
    1a5c:	a8 01       	movw	r20, r16
    1a5e:	b6 01       	movw	r22, r12
    1a60:	85 58       	subi	r24, 0x85	; 133
    1a62:	93 4f       	sbci	r25, 0xF3	; 243
    1a64:	0e 94 7f 17 	call	0x2efe	; 0x2efe <memcpy>
    1a68:	80 91 79 0c 	lds	r24, 0x0C79
    1a6c:	90 91 7a 0c 	lds	r25, 0x0C7A
    1a70:	08 0f       	add	r16, r24
    1a72:	19 1f       	adc	r17, r25
    1a74:	10 93 7a 0c 	sts	0x0C7A, r17
    1a78:	00 93 79 0c 	sts	0x0C79, r16
    1a7c:	cc c0       	rjmp	.+408    	; 0x1c16 <HostCommand+0x22c>
    1a7e:	81 30       	cpi	r24, 0x01	; 1
    1a80:	09 f0       	breq	.+2      	; 0x1a84 <HostCommand+0x9a>
    1a82:	c9 c0       	rjmp	.+402    	; 0x1c16 <HostCommand+0x22c>
    1a84:	17 2f       	mov	r17, r23
    1a86:	1f 70       	andi	r17, 0x0F	; 15
    1a88:	80 91 68 0b 	lds	r24, 0x0B68
    1a8c:	18 30       	cpi	r17, 0x08	; 8
    1a8e:	08 f0       	brcs	.+2      	; 0x1a92 <HostCommand+0xa8>
    1a90:	b4 c0       	rjmp	.+360    	; 0x1bfa <HostCommand+0x210>
    1a92:	82 ff       	sbrs	r24, 2
    1a94:	14 c0       	rjmp	.+40     	; 0x1abe <HostCommand+0xd4>
    1a96:	1f 92       	push	r1
    1a98:	1f 93       	push	r17
    1a9a:	1f 92       	push	r1
    1a9c:	0f 93       	push	r16
    1a9e:	88 e1       	ldi	r24, 0x18	; 24
    1aa0:	95 e0       	ldi	r25, 0x05	; 5
    1aa2:	9f 93       	push	r25
    1aa4:	8f 93       	push	r24
    1aa6:	5f 83       	std	Y+7, r21	; 0x07
    1aa8:	78 87       	std	Y+8, r23	; 0x08
    1aaa:	0e 94 88 17 	call	0x2f10	; 0x2f10 <printf_P>
    1aae:	0f 90       	pop	r0
    1ab0:	0f 90       	pop	r0
    1ab2:	0f 90       	pop	r0
    1ab4:	0f 90       	pop	r0
    1ab6:	0f 90       	pop	r0
    1ab8:	0f 90       	pop	r0
    1aba:	78 85       	ldd	r23, Y+8	; 0x08
    1abc:	5f 81       	ldd	r21, Y+7	; 0x07
    1abe:	05 31       	cpi	r16, 0x15	; 21
    1ac0:	68 f5       	brcc	.+90     	; 0x1b1c <HostCommand+0x132>
    1ac2:	03 31       	cpi	r16, 0x13	; 19
    1ac4:	08 f0       	brcs	.+2      	; 0x1ac8 <HostCommand+0xde>
    1ac6:	61 c0       	rjmp	.+194    	; 0x1b8a <HostCommand+0x1a0>
    1ac8:	01 31       	cpi	r16, 0x11	; 17
    1aca:	71 f1       	breq	.+92     	; 0x1b28 <HostCommand+0x13e>
    1acc:	02 31       	cpi	r16, 0x12	; 18
    1ace:	09 f0       	breq	.+2      	; 0x1ad2 <HostCommand+0xe8>
    1ad0:	a2 c0       	rjmp	.+324    	; 0x1c16 <HostCommand+0x22c>
    1ad2:	86 e0       	ldi	r24, 0x06	; 6
    1ad4:	80 93 64 0a 	sts	0x0A64, r24
    1ad8:	00 93 65 0a 	sts	0x0A65, r16
    1adc:	81 2f       	mov	r24, r17
    1ade:	80 65       	ori	r24, 0x50	; 80
    1ae0:	80 93 66 0a 	sts	0x0A66, r24
    1ae4:	8a e0       	ldi	r24, 0x0A	; 10
    1ae6:	91 e0       	ldi	r25, 0x01	; 1
    1ae8:	18 9f       	mul	r17, r24
    1aea:	f0 01       	movw	r30, r0
    1aec:	19 9f       	mul	r17, r25
    1aee:	f0 0d       	add	r31, r0
    1af0:	11 24       	eor	r1, r1
    1af2:	e2 5f       	subi	r30, 0xF2	; 242
    1af4:	fe 4f       	sbci	r31, 0xFE	; 254
    1af6:	81 81       	ldd	r24, Z+1	; 0x01
    1af8:	80 93 67 0a 	sts	0x0A67, r24
    1afc:	92 81       	ldd	r25, Z+2	; 0x02
    1afe:	83 81       	ldd	r24, Z+3	; 0x03
    1b00:	90 93 68 0a 	sts	0x0A68, r25
    1b04:	80 93 69 0a 	sts	0x0A69, r24
    1b08:	84 81       	ldd	r24, Z+4	; 0x04
    1b0a:	80 93 6a 0a 	sts	0x0A6A, r24
    1b0e:	47 e0       	ldi	r20, 0x07	; 7
    1b10:	50 e0       	ldi	r21, 0x00	; 0
    1b12:	64 e6       	ldi	r22, 0x64	; 100
    1b14:	7a e0       	ldi	r23, 0x0A	; 10
    1b16:	80 e0       	ldi	r24, 0x00	; 0
    1b18:	33 dd       	rcall	.-1434   	; 0x1580 <SendSock>
    1b1a:	7d c0       	rjmp	.+250    	; 0x1c16 <HostCommand+0x22c>
    1b1c:	05 31       	cpi	r16, 0x15	; 21
    1b1e:	09 f0       	breq	.+2      	; 0x1b22 <HostCommand+0x138>
    1b20:	7a c0       	rjmp	.+244    	; 0x1c16 <HostCommand+0x22c>
    1b22:	81 2f       	mov	r24, r17
    1b24:	39 df       	rcall	.-398    	; 0x1998 <RecvReport>
    1b26:	77 c0       	rjmp	.+238    	; 0x1c16 <HostCommand+0x22c>
    1b28:	d6 01       	movw	r26, r12
    1b2a:	13 96       	adiw	r26, 0x03	; 3
    1b2c:	8c 91       	ld	r24, X
    1b2e:	13 97       	sbiw	r26, 0x03	; 3
    1b30:	2a e0       	ldi	r18, 0x0A	; 10
    1b32:	31 e0       	ldi	r19, 0x01	; 1
    1b34:	12 9f       	mul	r17, r18
    1b36:	f0 01       	movw	r30, r0
    1b38:	13 9f       	mul	r17, r19
    1b3a:	f0 0d       	add	r31, r0
    1b3c:	11 24       	eor	r1, r1
    1b3e:	e2 5f       	subi	r30, 0xF2	; 242
    1b40:	fe 4f       	sbci	r31, 0xFE	; 254
    1b42:	81 83       	std	Z+1, r24	; 0x01
    1b44:	15 96       	adiw	r26, 0x05	; 5
    1b46:	8c 91       	ld	r24, X
    1b48:	15 97       	sbiw	r26, 0x05	; 5
    1b4a:	90 e0       	ldi	r25, 0x00	; 0
    1b4c:	98 2f       	mov	r25, r24
    1b4e:	88 27       	eor	r24, r24
    1b50:	14 96       	adiw	r26, 0x04	; 4
    1b52:	2c 91       	ld	r18, X
    1b54:	14 97       	sbiw	r26, 0x04	; 4
    1b56:	82 2b       	or	r24, r18
    1b58:	93 83       	std	Z+3, r25	; 0x03
    1b5a:	82 83       	std	Z+2, r24	; 0x02
    1b5c:	16 96       	adiw	r26, 0x06	; 6
    1b5e:	8c 91       	ld	r24, X
    1b60:	84 83       	std	Z+4, r24	; 0x04
    1b62:	70 ff       	sbrs	r23, 0
    1b64:	58 c0       	rjmp	.+176    	; 0x1c16 <HostCommand+0x22c>
    1b66:	81 2f       	mov	r24, r17
    1b68:	86 95       	lsr	r24
    1b6a:	78 87       	std	Y+8, r23	; 0x08
    1b6c:	0e 94 1e 04 	call	0x83c	; 0x83c <InitialScc>
    1b70:	80 91 68 0b 	lds	r24, 0x0B68
    1b74:	78 85       	ldd	r23, Y+8	; 0x08
    1b76:	83 ff       	sbrs	r24, 3
    1b78:	4e c0       	rjmp	.+156    	; 0x1c16 <HostCommand+0x22c>
    1b7a:	1f 92       	push	r1
    1b7c:	1f 93       	push	r17
    1b7e:	7e 70       	andi	r23, 0x0E	; 14
    1b80:	1f 92       	push	r1
    1b82:	7f 93       	push	r23
    1b84:	80 e0       	ldi	r24, 0x00	; 0
    1b86:	95 e0       	ldi	r25, 0x05	; 5
    1b88:	28 c0       	rjmp	.+80     	; 0x1bda <HostCommand+0x1f0>
    1b8a:	53 30       	cpi	r21, 0x03	; 3
    1b8c:	88 f1       	brcs	.+98     	; 0x1bf0 <HostCommand+0x206>
    1b8e:	52 50       	subi	r21, 0x02	; 2
    1b90:	2a e0       	ldi	r18, 0x0A	; 10
    1b92:	31 e0       	ldi	r19, 0x01	; 1
    1b94:	12 9f       	mul	r17, r18
    1b96:	c0 01       	movw	r24, r0
    1b98:	13 9f       	mul	r17, r19
    1b9a:	90 0d       	add	r25, r0
    1b9c:	11 24       	eor	r1, r1
    1b9e:	fc 01       	movw	r30, r24
    1ba0:	ec 56       	subi	r30, 0x6C	; 108
    1ba2:	fe 4f       	sbci	r31, 0xFE	; 254
    1ba4:	5f 01       	movw	r10, r30
    1ba6:	50 83       	st	Z, r21
    1ba8:	45 2f       	mov	r20, r21
    1baa:	50 e0       	ldi	r21, 0x00	; 0
    1bac:	b6 01       	movw	r22, r12
    1bae:	6d 5f       	subi	r22, 0xFD	; 253
    1bb0:	7f 4f       	sbci	r23, 0xFF	; 255
    1bb2:	8d 5e       	subi	r24, 0xED	; 237
    1bb4:	9e 4f       	sbci	r25, 0xFE	; 254
    1bb6:	0e 94 7f 17 	call	0x2efe	; 0x2efe <memcpy>
    1bba:	03 31       	cpi	r16, 0x13	; 19
    1bbc:	61 f5       	brne	.+88     	; 0x1c16 <HostCommand+0x22c>
    1bbe:	81 2f       	mov	r24, r17
    1bc0:	a4 de       	rcall	.-696    	; 0x190a <PreSend>
    1bc2:	80 91 68 0b 	lds	r24, 0x0B68
    1bc6:	83 ff       	sbrs	r24, 3
    1bc8:	26 c0       	rjmp	.+76     	; 0x1c16 <HostCommand+0x22c>
    1bca:	1f 92       	push	r1
    1bcc:	1f 93       	push	r17
    1bce:	d5 01       	movw	r26, r10
    1bd0:	8c 91       	ld	r24, X
    1bd2:	1f 92       	push	r1
    1bd4:	8f 93       	push	r24
    1bd6:	88 ee       	ldi	r24, 0xE8	; 232
    1bd8:	94 e0       	ldi	r25, 0x04	; 4
    1bda:	9f 93       	push	r25
    1bdc:	8f 93       	push	r24
    1bde:	0e 94 88 17 	call	0x2f10	; 0x2f10 <printf_P>
    1be2:	0f 90       	pop	r0
    1be4:	0f 90       	pop	r0
    1be6:	0f 90       	pop	r0
    1be8:	0f 90       	pop	r0
    1bea:	0f 90       	pop	r0
    1bec:	0f 90       	pop	r0
    1bee:	13 c0       	rjmp	.+38     	; 0x1c16 <HostCommand+0x22c>
    1bf0:	1f 92       	push	r1
    1bf2:	1f 93       	push	r17
    1bf4:	8c ec       	ldi	r24, 0xCC	; 204
    1bf6:	94 e0       	ldi	r25, 0x04	; 4
    1bf8:	06 c0       	rjmp	.+12     	; 0x1c06 <HostCommand+0x21c>
    1bfa:	82 ff       	sbrs	r24, 2
    1bfc:	0c c0       	rjmp	.+24     	; 0x1c16 <HostCommand+0x22c>
    1bfe:	1f 92       	push	r1
    1c00:	1f 93       	push	r17
    1c02:	8b eb       	ldi	r24, 0xBB	; 187
    1c04:	94 e0       	ldi	r25, 0x04	; 4
    1c06:	9f 93       	push	r25
    1c08:	8f 93       	push	r24
    1c0a:	0e 94 88 17 	call	0x2f10	; 0x2f10 <printf_P>
    1c0e:	0f 90       	pop	r0
    1c10:	0f 90       	pop	r0
    1c12:	0f 90       	pop	r0
    1c14:	0f 90       	pop	r0
    1c16:	e9 0c       	add	r14, r9
    1c18:	f1 1c       	adc	r15, r1
    1c1a:	b7 01       	movw	r22, r14
    1c1c:	6f 5f       	subi	r22, 0xFF	; 255
    1c1e:	7f 4f       	sbci	r23, 0xFF	; 255
    1c20:	80 91 60 09 	lds	r24, 0x0960
    1c24:	90 91 61 09 	lds	r25, 0x0961
    1c28:	68 17       	cp	r22, r24
    1c2a:	79 07       	cpc	r23, r25
    1c2c:	0c f0       	brlt	.+2      	; 0x1c30 <HostCommand+0x246>
    1c2e:	03 cf       	rjmp	.-506    	; 0x1a36 <HostCommand+0x4c>
    1c30:	82 e6       	ldi	r24, 0x62	; 98
    1c32:	99 e0       	ldi	r25, 0x09	; 9
    1c34:	21 de       	rcall	.-958    	; 0x1878 <Shift>
    1c36:	e0 94       	com	r14
    1c38:	f0 94       	com	r15
    1c3a:	80 91 60 09 	lds	r24, 0x0960
    1c3e:	90 91 61 09 	lds	r25, 0x0961
    1c42:	e8 0e       	add	r14, r24
    1c44:	f9 1e       	adc	r15, r25
    1c46:	f0 92 61 09 	sts	0x0961, r15
    1c4a:	e0 92 60 09 	sts	0x0960, r14
    1c4e:	28 96       	adiw	r28, 0x08	; 8
    1c50:	0f b6       	in	r0, 0x3f	; 63
    1c52:	f8 94       	cli
    1c54:	de bf       	out	0x3e, r29	; 62
    1c56:	0f be       	out	0x3f, r0	; 63
    1c58:	cd bf       	out	0x3d, r28	; 61
    1c5a:	df 91       	pop	r29
    1c5c:	cf 91       	pop	r28
    1c5e:	1f 91       	pop	r17
    1c60:	0f 91       	pop	r16
    1c62:	ff 90       	pop	r15
    1c64:	ef 90       	pop	r14
    1c66:	df 90       	pop	r13
    1c68:	cf 90       	pop	r12
    1c6a:	bf 90       	pop	r11
    1c6c:	af 90       	pop	r10
    1c6e:	9f 90       	pop	r9
    1c70:	08 95       	ret

00001c72 <Output>:
    1c72:	ee e0       	ldi	r30, 0x0E	; 14
    1c74:	f1 e0       	ldi	r31, 0x01	; 1
    1c76:	80 81       	ld	r24, Z
    1c78:	8b bb       	out	0x1b, r24	; 27
    1c7a:	81 81       	ldd	r24, Z+1	; 0x01
    1c7c:	85 bb       	out	0x15, r24	; 21
    1c7e:	82 81       	ldd	r24, Z+2	; 0x02
    1c80:	96 b3       	in	r25, 0x16	; 22
    1c82:	28 2f       	mov	r18, r24
    1c84:	20 7f       	andi	r18, 0xF0	; 240
    1c86:	9f 70       	andi	r25, 0x0F	; 15
    1c88:	92 2b       	or	r25, r18
    1c8a:	98 bb       	out	0x18, r25	; 24
    1c8c:	21 b1       	in	r18, 0x01	; 1
    1c8e:	30 e1       	ldi	r19, 0x10	; 16
    1c90:	83 9f       	mul	r24, r19
    1c92:	c0 01       	movw	r24, r0
    1c94:	11 24       	eor	r1, r1
    1c96:	92 2f       	mov	r25, r18
    1c98:	9f 70       	andi	r25, 0x0F	; 15
    1c9a:	89 2b       	or	r24, r25
    1c9c:	83 b9       	out	0x03, r24	; 3
    1c9e:	08 95       	ret

00001ca0 <PwmCtrl>:
    1ca0:	cf 93       	push	r28
    1ca2:	c8 2f       	mov	r28, r24
    1ca4:	84 30       	cpi	r24, 0x04	; 4
    1ca6:	d0 f5       	brcc	.+116    	; 0x1d1c <PwmCtrl+0x7c>
    1ca8:	81 11       	cpse	r24, r1
    1caa:	11 c0       	rjmp	.+34     	; 0x1cce <PwmCtrl+0x2e>
    1cac:	80 91 0e 01 	lds	r24, 0x010E
    1cb0:	90 91 0f 01 	lds	r25, 0x010F
    1cb4:	97 bd       	out	0x27, r25	; 39
    1cb6:	86 bd       	out	0x26, r24	; 38
    1cb8:	80 91 0e 01 	lds	r24, 0x010E
    1cbc:	90 91 0f 01 	lds	r25, 0x010F
    1cc0:	96 95       	lsr	r25
    1cc2:	87 95       	ror	r24
    1cc4:	9b bd       	out	0x2b, r25	; 43
    1cc6:	8a bd       	out	0x2a, r24	; 42
    1cc8:	8c e1       	ldi	r24, 0x1C	; 28
    1cca:	8e bd       	out	0x2e, r24	; 46
    1ccc:	27 c0       	rjmp	.+78     	; 0x1d1c <PwmCtrl+0x7c>
    1cce:	e8 2f       	mov	r30, r24
    1cd0:	f0 e0       	ldi	r31, 0x00	; 0
    1cd2:	ee 0f       	add	r30, r30
    1cd4:	ff 1f       	adc	r31, r31
    1cd6:	e2 5f       	subi	r30, 0xF2	; 242
    1cd8:	fe 4f       	sbci	r31, 0xFE	; 254
    1cda:	20 81       	ld	r18, Z
    1cdc:	31 81       	ldd	r19, Z+1	; 0x01
    1cde:	a0 e0       	ldi	r26, 0x00	; 0
    1ce0:	b2 e1       	ldi	r27, 0x12	; 18
    1ce2:	0e 94 70 17 	call	0x2ee0	; 0x2ee0 <__umulhisi3>
    1ce6:	28 ee       	ldi	r18, 0xE8	; 232
    1ce8:	33 e0       	ldi	r19, 0x03	; 3
    1cea:	40 e0       	ldi	r20, 0x00	; 0
    1cec:	50 e0       	ldi	r21, 0x00	; 0
    1cee:	0e 94 4e 17 	call	0x2e9c	; 0x2e9c <__udivmodsi4>
    1cf2:	c1 30       	cpi	r28, 0x01	; 1
    1cf4:	39 f0       	breq	.+14     	; 0x1d04 <PwmCtrl+0x64>
    1cf6:	c2 30       	cpi	r28, 0x02	; 2
    1cf8:	51 f4       	brne	.+20     	; 0x1d0e <PwmCtrl+0x6e>
    1cfa:	30 93 87 00 	sts	0x0087, r19
    1cfe:	20 93 86 00 	sts	0x0086, r18
    1d02:	09 c0       	rjmp	.+18     	; 0x1d16 <PwmCtrl+0x76>
    1d04:	30 93 83 00 	sts	0x0083, r19
    1d08:	20 93 82 00 	sts	0x0082, r18
    1d0c:	04 c0       	rjmp	.+8      	; 0x1d16 <PwmCtrl+0x76>
    1d0e:	30 93 85 00 	sts	0x0085, r19
    1d12:	20 93 84 00 	sts	0x0084, r18
    1d16:	8a e1       	ldi	r24, 0x1A	; 26
    1d18:	80 93 8a 00 	sts	0x008A, r24
    1d1c:	cf 91       	pop	r28
    1d1e:	08 95       	ret

00001d20 <PutCharLB>:
    1d20:	90 91 9b 00 	lds	r25, 0x009B
    1d24:	95 ff       	sbrs	r25, 5
    1d26:	fc cf       	rjmp	.-8      	; 0x1d20 <PutCharLB>
    1d28:	80 93 9c 00 	sts	0x009C, r24
    1d2c:	08 95       	ret

00001d2e <PutsLB>:
    1d2e:	0f 93       	push	r16
    1d30:	1f 93       	push	r17
    1d32:	cf 93       	push	r28
    1d34:	df 93       	push	r29
    1d36:	1f 92       	push	r1
    1d38:	cd b7       	in	r28, 0x3d	; 61
    1d3a:	de b7       	in	r29, 0x3e	; 62
    1d3c:	20 91 76 0b 	lds	r18, 0x0B76
    1d40:	21 11       	cpse	r18, r1
    1d42:	fe cf       	rjmp	.-4      	; 0x1d40 <PutsLB+0x12>
    1d44:	c0 9a       	sbi	0x18, 0	; 24
    1d46:	8c 01       	movw	r16, r24
    1d48:	66 23       	and	r22, r22
    1d4a:	41 f0       	breq	.+16     	; 0x1d5c <PutsLB+0x2e>
    1d4c:	f8 01       	movw	r30, r16
    1d4e:	81 91       	ld	r24, Z+
    1d50:	8f 01       	movw	r16, r30
    1d52:	69 83       	std	Y+1, r22	; 0x01
    1d54:	e5 df       	rcall	.-54     	; 0x1d20 <PutCharLB>
    1d56:	69 81       	ldd	r22, Y+1	; 0x01
    1d58:	61 50       	subi	r22, 0x01	; 1
    1d5a:	f6 cf       	rjmp	.-20     	; 0x1d48 <PutsLB+0x1a>
    1d5c:	80 91 9b 00 	lds	r24, 0x009B
    1d60:	86 ff       	sbrs	r24, 6
    1d62:	fc cf       	rjmp	.-8      	; 0x1d5c <PutsLB+0x2e>
    1d64:	c0 98       	cbi	0x18, 0	; 24
    1d66:	0f 90       	pop	r0
    1d68:	df 91       	pop	r29
    1d6a:	cf 91       	pop	r28
    1d6c:	1f 91       	pop	r17
    1d6e:	0f 91       	pop	r16
    1d70:	08 95       	ret

00001d72 <InpReport>:
    1d72:	cf 93       	push	r28
    1d74:	df 93       	push	r29
    1d76:	85 e0       	ldi	r24, 0x05	; 5
    1d78:	80 93 7b 0c 	sts	0x0C7B, r24
    1d7c:	81 e2       	ldi	r24, 0x21	; 33
    1d7e:	80 93 7c 0c 	sts	0x0C7C, r24
    1d82:	80 91 80 0d 	lds	r24, 0x0D80
    1d86:	8f 70       	andi	r24, 0x0F	; 15
    1d88:	80 6a       	ori	r24, 0xA0	; 160
    1d8a:	80 93 7d 0c 	sts	0x0C7D, r24
    1d8e:	ce e0       	ldi	r28, 0x0E	; 14
    1d90:	d1 e0       	ldi	r29, 0x01	; 1
    1d92:	88 85       	ldd	r24, Y+8	; 0x08
    1d94:	80 93 7e 0c 	sts	0x0C7E, r24
    1d98:	8f 81       	ldd	r24, Y+7	; 0x07
    1d9a:	80 93 7f 0c 	sts	0x0C7F, r24
    1d9e:	8e 81       	ldd	r24, Y+6	; 0x06
    1da0:	80 93 80 0c 	sts	0x0C80, r24
    1da4:	66 e0       	ldi	r22, 0x06	; 6
    1da6:	8b e7       	ldi	r24, 0x7B	; 123
    1da8:	9c e0       	ldi	r25, 0x0C	; 12
    1daa:	c1 df       	rcall	.-126    	; 0x1d2e <PutsLB>
    1dac:	8e 81       	ldd	r24, Y+6	; 0x06
    1dae:	89 87       	std	Y+9, r24	; 0x09
    1db0:	8f 81       	ldd	r24, Y+7	; 0x07
    1db2:	8a 87       	std	Y+10, r24	; 0x0a
    1db4:	88 85       	ldd	r24, Y+8	; 0x08
    1db6:	8b 87       	std	Y+11, r24	; 0x0b
    1db8:	df 91       	pop	r29
    1dba:	cf 91       	pop	r28
    1dbc:	08 95       	ret

00001dbe <InpNullReport>:
    1dbe:	82 e0       	ldi	r24, 0x02	; 2
    1dc0:	80 93 7b 0c 	sts	0x0C7B, r24
    1dc4:	82 e2       	ldi	r24, 0x22	; 34
    1dc6:	80 93 7c 0c 	sts	0x0C7C, r24
    1dca:	80 91 80 0d 	lds	r24, 0x0D80
    1dce:	8f 70       	andi	r24, 0x0F	; 15
    1dd0:	80 6a       	ori	r24, 0xA0	; 160
    1dd2:	80 93 7d 0c 	sts	0x0C7D, r24
    1dd6:	63 e0       	ldi	r22, 0x03	; 3
    1dd8:	8b e7       	ldi	r24, 0x7B	; 123
    1dda:	9c e0       	ldi	r25, 0x0C	; 12
    1ddc:	a8 cf       	rjmp	.-176    	; 0x1d2e <PutsLB>

00001dde <OutpReport>:
    1dde:	cf 93       	push	r28
    1de0:	df 93       	push	r29
    1de2:	85 e0       	ldi	r24, 0x05	; 5
    1de4:	80 93 7b 0c 	sts	0x0C7B, r24
    1de8:	81 e3       	ldi	r24, 0x31	; 49
    1dea:	80 93 7c 0c 	sts	0x0C7C, r24
    1dee:	80 91 80 0d 	lds	r24, 0x0D80
    1df2:	8f 70       	andi	r24, 0x0F	; 15
    1df4:	80 6a       	ori	r24, 0xA0	; 160
    1df6:	80 93 7d 0c 	sts	0x0C7D, r24
    1dfa:	ce e0       	ldi	r28, 0x0E	; 14
    1dfc:	d1 e0       	ldi	r29, 0x01	; 1
    1dfe:	8a 81       	ldd	r24, Y+2	; 0x02
    1e00:	80 93 7e 0c 	sts	0x0C7E, r24
    1e04:	89 81       	ldd	r24, Y+1	; 0x01
    1e06:	80 93 7f 0c 	sts	0x0C7F, r24
    1e0a:	88 81       	ld	r24, Y
    1e0c:	80 93 80 0c 	sts	0x0C80, r24
    1e10:	66 e0       	ldi	r22, 0x06	; 6
    1e12:	8b e7       	ldi	r24, 0x7B	; 123
    1e14:	9c e0       	ldi	r25, 0x0C	; 12
    1e16:	8b df       	rcall	.-234    	; 0x1d2e <PutsLB>
    1e18:	88 81       	ld	r24, Y
    1e1a:	8b 83       	std	Y+3, r24	; 0x03
    1e1c:	89 81       	ldd	r24, Y+1	; 0x01
    1e1e:	8c 83       	std	Y+4, r24	; 0x04
    1e20:	8a 81       	ldd	r24, Y+2	; 0x02
    1e22:	8d 83       	std	Y+5, r24	; 0x05
    1e24:	df 91       	pop	r29
    1e26:	cf 91       	pop	r28
    1e28:	08 95       	ret

00001e2a <OutpNullReport>:
    1e2a:	82 e0       	ldi	r24, 0x02	; 2
    1e2c:	80 93 7b 0c 	sts	0x0C7B, r24
    1e30:	82 e3       	ldi	r24, 0x32	; 50
    1e32:	80 93 7c 0c 	sts	0x0C7C, r24
    1e36:	80 91 80 0d 	lds	r24, 0x0D80
    1e3a:	8f 70       	andi	r24, 0x0F	; 15
    1e3c:	80 6a       	ori	r24, 0xA0	; 160
    1e3e:	80 93 7d 0c 	sts	0x0C7D, r24
    1e42:	63 e0       	ldi	r22, 0x03	; 3
    1e44:	8b e7       	ldi	r24, 0x7B	; 123
    1e46:	9c e0       	ldi	r25, 0x0C	; 12
    1e48:	72 cf       	rjmp	.-284    	; 0x1d2e <PutsLB>

00001e4a <PwmReport>:
    1e4a:	0f 93       	push	r16
    1e4c:	1f 93       	push	r17
    1e4e:	cf 93       	push	r28
    1e50:	df 93       	push	r29
    1e52:	95 e0       	ldi	r25, 0x05	; 5
    1e54:	90 93 7b 0c 	sts	0x0C7B, r25
    1e58:	91 e4       	ldi	r25, 0x41	; 65
    1e5a:	90 93 7c 0c 	sts	0x0C7C, r25
    1e5e:	90 91 80 0d 	lds	r25, 0x0D80
    1e62:	9f 70       	andi	r25, 0x0F	; 15
    1e64:	90 6a       	ori	r25, 0xA0	; 160
    1e66:	90 93 7d 0c 	sts	0x0C7D, r25
    1e6a:	80 93 7e 0c 	sts	0x0C7E, r24
    1e6e:	c8 2f       	mov	r28, r24
    1e70:	d0 e0       	ldi	r29, 0x00	; 0
    1e72:	8e 01       	movw	r16, r28
    1e74:	00 0f       	add	r16, r16
    1e76:	11 1f       	adc	r17, r17
    1e78:	02 5f       	subi	r16, 0xF2	; 242
    1e7a:	1e 4f       	sbci	r17, 0xFE	; 254
    1e7c:	f8 01       	movw	r30, r16
    1e7e:	80 81       	ld	r24, Z
    1e80:	91 81       	ldd	r25, Z+1	; 0x01
    1e82:	90 93 7f 0c 	sts	0x0C7F, r25
    1e86:	80 93 80 0c 	sts	0x0C80, r24
    1e8a:	66 e0       	ldi	r22, 0x06	; 6
    1e8c:	8b e7       	ldi	r24, 0x7B	; 123
    1e8e:	9c e0       	ldi	r25, 0x0C	; 12
    1e90:	4e df       	rcall	.-356    	; 0x1d2e <PutsLB>
    1e92:	f8 01       	movw	r30, r16
    1e94:	80 81       	ld	r24, Z
    1e96:	91 81       	ldd	r25, Z+1	; 0x01
    1e98:	cc 0f       	add	r28, r28
    1e9a:	dd 1f       	adc	r29, r29
    1e9c:	ca 5e       	subi	r28, 0xEA	; 234
    1e9e:	de 4f       	sbci	r29, 0xFE	; 254
    1ea0:	99 83       	std	Y+1, r25	; 0x01
    1ea2:	88 83       	st	Y, r24
    1ea4:	df 91       	pop	r29
    1ea6:	cf 91       	pop	r28
    1ea8:	1f 91       	pop	r17
    1eaa:	0f 91       	pop	r16
    1eac:	08 95       	ret

00001eae <PwmNullReport>:
    1eae:	93 e0       	ldi	r25, 0x03	; 3
    1eb0:	90 93 7b 0c 	sts	0x0C7B, r25
    1eb4:	92 e4       	ldi	r25, 0x42	; 66
    1eb6:	90 93 7c 0c 	sts	0x0C7C, r25
    1eba:	90 91 80 0d 	lds	r25, 0x0D80
    1ebe:	9f 70       	andi	r25, 0x0F	; 15
    1ec0:	90 6a       	ori	r25, 0xA0	; 160
    1ec2:	90 93 7d 0c 	sts	0x0C7D, r25
    1ec6:	80 93 7e 0c 	sts	0x0C7E, r24
    1eca:	64 e0       	ldi	r22, 0x04	; 4
    1ecc:	8b e7       	ldi	r24, 0x7B	; 123
    1ece:	9c e0       	ldi	r25, 0x0C	; 12
    1ed0:	2e cf       	rjmp	.-420    	; 0x1d2e <PutsLB>

00001ed2 <Turnup>:
    1ed2:	98 2f       	mov	r25, r24
    1ed4:	80 ff       	sbrs	r24, 0
    1ed6:	02 c0       	rjmp	.+4      	; 0x1edc <Turnup+0xa>
    1ed8:	80 e8       	ldi	r24, 0x80	; 128
    1eda:	01 c0       	rjmp	.+2      	; 0x1ede <Turnup+0xc>
    1edc:	80 e0       	ldi	r24, 0x00	; 0
    1ede:	91 fd       	sbrc	r25, 1
    1ee0:	80 64       	ori	r24, 0x40	; 64
    1ee2:	92 fd       	sbrc	r25, 2
    1ee4:	80 62       	ori	r24, 0x20	; 32
    1ee6:	93 fd       	sbrc	r25, 3
    1ee8:	80 61       	ori	r24, 0x10	; 16
    1eea:	94 fd       	sbrc	r25, 4
    1eec:	88 60       	ori	r24, 0x08	; 8
    1eee:	95 fd       	sbrc	r25, 5
    1ef0:	84 60       	ori	r24, 0x04	; 4
    1ef2:	96 fd       	sbrc	r25, 6
    1ef4:	82 60       	ori	r24, 0x02	; 2
    1ef6:	97 fd       	sbrc	r25, 7
    1ef8:	81 60       	ori	r24, 0x01	; 1
    1efa:	08 95       	ret

00001efc <Delay>:
    1efc:	f8 94       	cli
    1efe:	90 93 72 0b 	sts	0x0B72, r25
    1f02:	80 93 71 0b 	sts	0x0B71, r24
    1f06:	78 94       	sei
    1f08:	80 91 71 0b 	lds	r24, 0x0B71
    1f0c:	90 91 72 0b 	lds	r25, 0x0B72
    1f10:	00 97       	sbiw	r24, 0x00	; 0
    1f12:	f1 f7       	brne	.-4      	; 0x1f10 <Delay+0x14>
    1f14:	08 95       	ret

00001f16 <InitialDev>:
    1f16:	80 91 80 0d 	lds	r24, 0x0D80
    1f1a:	82 95       	swap	r24
    1f1c:	8f 70       	andi	r24, 0x0F	; 15
    1f1e:	82 30       	cpi	r24, 0x02	; 2
    1f20:	30 f4       	brcc	.+12     	; 0x1f2e <InitialDev+0x18>
    1f22:	80 ec       	ldi	r24, 0xC0	; 192
    1f24:	85 bf       	out	0x35, r24	; 53
    1f26:	88 e4       	ldi	r24, 0x48	; 72
    1f28:	80 93 6d 00 	sts	0x006D, r24
    1f2c:	27 c0       	rjmp	.+78     	; 0x1f7c <InitialDev+0x66>
    1f2e:	15 be       	out	0x35, r1	; 53
    1f30:	82 30       	cpi	r24, 0x02	; 2
    1f32:	61 f4       	brne	.+24     	; 0x1f4c <InitialDev+0x36>
    1f34:	8f ef       	ldi	r24, 0xFF	; 255
    1f36:	85 bb       	out	0x15, r24	; 21
    1f38:	8b bb       	out	0x1b, r24	; 27
    1f3a:	14 ba       	out	0x14, r1	; 20
    1f3c:	1a ba       	out	0x1a, r1	; 26
    1f3e:	9e ef       	ldi	r25, 0xFE	; 254
    1f40:	98 bb       	out	0x18, r25	; 24
    1f42:	9f e0       	ldi	r25, 0x0F	; 15
    1f44:	97 bb       	out	0x17, r25	; 23
    1f46:	83 b9       	out	0x03, r24	; 3
    1f48:	86 e0       	ldi	r24, 0x06	; 6
    1f4a:	17 c0       	rjmp	.+46     	; 0x1f7a <InitialDev+0x64>
    1f4c:	83 30       	cpi	r24, 0x03	; 3
    1f4e:	61 f4       	brne	.+24     	; 0x1f68 <InitialDev+0x52>
    1f50:	15 ba       	out	0x15, r1	; 21
    1f52:	1b ba       	out	0x1b, r1	; 27
    1f54:	8f ef       	ldi	r24, 0xFF	; 255
    1f56:	84 bb       	out	0x14, r24	; 20
    1f58:	8a bb       	out	0x1a, r24	; 26
    1f5a:	9e e0       	ldi	r25, 0x0E	; 14
    1f5c:	98 bb       	out	0x18, r25	; 24
    1f5e:	87 bb       	out	0x17, r24	; 23
    1f60:	8f e0       	ldi	r24, 0x0F	; 15
    1f62:	83 b9       	out	0x03, r24	; 3
    1f64:	86 ef       	ldi	r24, 0xF6	; 246
    1f66:	09 c0       	rjmp	.+18     	; 0x1f7a <InitialDev+0x64>
    1f68:	1b ba       	out	0x1b, r1	; 27
    1f6a:	8f ef       	ldi	r24, 0xFF	; 255
    1f6c:	8a bb       	out	0x1a, r24	; 26
    1f6e:	9e e0       	ldi	r25, 0x0E	; 14
    1f70:	98 bb       	out	0x18, r25	; 24
    1f72:	87 bb       	out	0x17, r24	; 23
    1f74:	86 ec       	ldi	r24, 0xC6	; 198
    1f76:	83 b9       	out	0x03, r24	; 3
    1f78:	8e ef       	ldi	r24, 0xFE	; 254
    1f7a:	82 b9       	out	0x02, r24	; 2
    1f7c:	10 92 90 00 	sts	0x0090, r1
    1f80:	39 e0       	ldi	r19, 0x09	; 9
    1f82:	39 b9       	out	0x09, r19	; 9
    1f84:	28 e9       	ldi	r18, 0x98	; 152
    1f86:	2a b9       	out	0x0a, r18	; 10
    1f88:	96 e0       	ldi	r25, 0x06	; 6
    1f8a:	90 93 95 00 	sts	0x0095, r25
    1f8e:	80 91 80 0d 	lds	r24, 0x0D80
    1f92:	82 95       	swap	r24
    1f94:	8f 70       	andi	r24, 0x0F	; 15
    1f96:	81 30       	cpi	r24, 0x01	; 1
    1f98:	41 f0       	breq	.+16     	; 0x1faa <InitialDev+0x94>
    1f9a:	10 92 98 00 	sts	0x0098, r1
    1f9e:	30 93 99 00 	sts	0x0099, r19
    1fa2:	20 93 9a 00 	sts	0x009A, r18
    1fa6:	90 93 9d 00 	sts	0x009D, r25
    1faa:	19 be       	out	0x39, r1	; 57
    1fac:	80 91 80 0d 	lds	r24, 0x0D80
    1fb0:	82 95       	swap	r24
    1fb2:	8f 70       	andi	r24, 0x0F	; 15
    1fb4:	82 30       	cpi	r24, 0x02	; 2
    1fb6:	80 f4       	brcc	.+32     	; 0x1fd8 <InitialDev+0xc2>
    1fb8:	8a ea       	ldi	r24, 0xAA	; 170
    1fba:	80 93 6a 00 	sts	0x006A, r24
    1fbe:	8a bf       	out	0x3a, r24	; 58
    1fc0:	80 91 80 0d 	lds	r24, 0x0D80
    1fc4:	82 95       	swap	r24
    1fc6:	8f 70       	andi	r24, 0x0F	; 15
    1fc8:	81 30       	cpi	r24, 0x01	; 1
    1fca:	11 f4       	brne	.+4      	; 0x1fd0 <InitialDev+0xba>
    1fcc:	81 ef       	ldi	r24, 0xF1	; 241
    1fce:	01 c0       	rjmp	.+2      	; 0x1fd2 <InitialDev+0xbc>
    1fd0:	81 e0       	ldi	r24, 0x01	; 1
    1fd2:	89 bf       	out	0x39, r24	; 57
    1fd4:	88 bf       	out	0x38, r24	; 56
    1fd6:	08 95       	ret
    1fd8:	84 30       	cpi	r24, 0x04	; 4
    1fda:	59 f5       	brne	.+86     	; 0x2032 <InitialDev+0x11c>
    1fdc:	8e ef       	ldi	r24, 0xFE	; 254
    1fde:	8f bd       	out	0x2f, r24	; 47
    1fe0:	9c e1       	ldi	r25, 0x1C	; 28
    1fe2:	9e bd       	out	0x2e, r25	; 46
    1fe4:	80 93 8b 00 	sts	0x008B, r24
    1fe8:	8a e1       	ldi	r24, 0x1A	; 26
    1fea:	80 93 8a 00 	sts	0x008A, r24
    1fee:	1d bc       	out	0x2d, r1	; 45
    1ff0:	1c bc       	out	0x2c, r1	; 44
    1ff2:	17 bc       	out	0x27, r1	; 39
    1ff4:	16 bc       	out	0x26, r1	; 38
    1ff6:	10 92 79 00 	sts	0x0079, r1
    1ffa:	10 92 78 00 	sts	0x0078, r1
    1ffe:	19 bc       	out	0x29, r1	; 41
    2000:	18 bc       	out	0x28, r1	; 40
    2002:	1b bc       	out	0x2b, r1	; 43
    2004:	1a bc       	out	0x2a, r1	; 42
    2006:	10 92 89 00 	sts	0x0089, r1
    200a:	10 92 88 00 	sts	0x0088, r1
    200e:	80 e0       	ldi	r24, 0x00	; 0
    2010:	92 e1       	ldi	r25, 0x12	; 18
    2012:	90 93 81 00 	sts	0x0081, r25
    2016:	80 93 80 00 	sts	0x0080, r24
    201a:	10 92 83 00 	sts	0x0083, r1
    201e:	10 92 82 00 	sts	0x0082, r1
    2022:	10 92 85 00 	sts	0x0085, r1
    2026:	10 92 84 00 	sts	0x0084, r1
    202a:	10 92 87 00 	sts	0x0087, r1
    202e:	10 92 86 00 	sts	0x0086, r1
    2032:	08 95       	ret

00002034 <main>:
    2034:	cd b7       	in	r28, 0x3d	; 61
    2036:	de b7       	in	r29, 0x3e	; 62
    2038:	26 97       	sbiw	r28, 0x06	; 6
    203a:	de bf       	out	0x3e, r29	; 62
    203c:	cd bf       	out	0x3d, r28	; 61
    203e:	10 92 81 0d 	sts	0x0D81, r1
    2042:	28 e0       	ldi	r18, 0x08	; 8
    2044:	20 93 68 0b 	sts	0x0B68, r18
    2048:	81 e5       	ldi	r24, 0x51	; 81
    204a:	98 e0       	ldi	r25, 0x08	; 8
    204c:	ee e0       	ldi	r30, 0x0E	; 14
    204e:	f1 e0       	ldi	r31, 0x01	; 1
    2050:	df 01       	movw	r26, r30
    2052:	ac 01       	movw	r20, r24
    2054:	1d 92       	st	X+, r1
    2056:	41 50       	subi	r20, 0x01	; 1
    2058:	50 40       	sbci	r21, 0x00	; 0
    205a:	e1 f7       	brne	.-8      	; 0x2054 <main+0x20>
    205c:	88 e0       	ldi	r24, 0x08	; 8
    205e:	92 e0       	ldi	r25, 0x02	; 2
    2060:	e3 e7       	ldi	r30, 0x73	; 115
    2062:	fb e0       	ldi	r31, 0x0B	; 11
    2064:	df 01       	movw	r26, r30
    2066:	ac 01       	movw	r20, r24
    2068:	1d 92       	st	X+, r1
    206a:	41 50       	subi	r20, 0x01	; 1
    206c:	50 40       	sbci	r21, 0x00	; 0
    206e:	e1 f7       	brne	.-8      	; 0x2068 <main+0x34>
    2070:	84 e0       	ldi	r24, 0x04	; 4
    2072:	92 e0       	ldi	r25, 0x02	; 2
    2074:	e0 e6       	ldi	r30, 0x60	; 96
    2076:	f9 e0       	ldi	r31, 0x09	; 9
    2078:	df 01       	movw	r26, r30
    207a:	ac 01       	movw	r20, r24
    207c:	1d 92       	st	X+, r1
    207e:	41 50       	subi	r20, 0x01	; 1
    2080:	50 40       	sbci	r21, 0x00	; 0
    2082:	e1 f7       	brne	.-8      	; 0x207c <main+0x48>
    2084:	83 e0       	ldi	r24, 0x03	; 3
    2086:	91 e0       	ldi	r25, 0x01	; 1
    2088:	e2 e8       	ldi	r30, 0x82	; 130
    208a:	fd e0       	ldi	r31, 0x0D	; 13
    208c:	df 01       	movw	r26, r30
    208e:	ac 01       	movw	r20, r24
    2090:	1d 92       	st	X+, r1
    2092:	41 50       	subi	r20, 0x01	; 1
    2094:	50 40       	sbci	r21, 0x00	; 0
    2096:	e1 f7       	brne	.-8      	; 0x2090 <main+0x5c>
    2098:	95 e0       	ldi	r25, 0x05	; 5
    209a:	eb e7       	ldi	r30, 0x7B	; 123
    209c:	fd e0       	ldi	r31, 0x0D	; 13
    209e:	df 01       	movw	r26, r30
    20a0:	39 2f       	mov	r19, r25
    20a2:	1d 92       	st	X+, r1
    20a4:	3a 95       	dec	r19
    20a6:	e9 f7       	brne	.-6      	; 0x20a2 <main+0x6e>
    20a8:	84 e1       	ldi	r24, 0x14	; 20
    20aa:	80 93 1a 01 	sts	0x011A, r24
    20ae:	84 e6       	ldi	r24, 0x64	; 100
    20b0:	80 93 5f 09 	sts	0x095F, r24
    20b4:	8e ef       	ldi	r24, 0xFE	; 254
    20b6:	88 bb       	out	0x18, r24	; 24
    20b8:	8f ef       	ldi	r24, 0xFF	; 255
    20ba:	87 bb       	out	0x17, r24	; 23
    20bc:	82 bb       	out	0x12, r24	; 18
    20be:	21 bb       	out	0x11, r18	; 17
    20c0:	83 b9       	out	0x03, r24	; 3
    20c2:	26 e0       	ldi	r18, 0x06	; 6
    20c4:	22 b9       	out	0x02, r18	; 2
    20c6:	80 93 62 00 	sts	0x0062, r24
    20ca:	10 92 61 00 	sts	0x0061, r1
    20ce:	80 93 65 00 	sts	0x0065, r24
    20d2:	80 ef       	ldi	r24, 0xF0	; 240
    20d4:	80 93 64 00 	sts	0x0064, r24
    20d8:	20 e0       	ldi	r18, 0x00	; 0
    20da:	31 e0       	ldi	r19, 0x01	; 1
    20dc:	30 93 88 0e 	sts	0x0E88, r19
    20e0:	20 93 87 0e 	sts	0x0E87, r18
    20e4:	80 e7       	ldi	r24, 0x70	; 112
    20e6:	82 bf       	out	0x32, r24	; 50
    20e8:	93 bf       	out	0x33, r25	; 51
    20ea:	81 e0       	ldi	r24, 0x01	; 1
    20ec:	86 bf       	out	0x36, r24	; 54
    20ee:	87 bf       	out	0x37, r24	; 55
    20f0:	19 be       	out	0x39, r1	; 57
    20f2:	78 94       	sei
    20f4:	80 91 81 0d 	lds	r24, 0x0D81
    20f8:	80 ff       	sbrs	r24, 0
    20fa:	ff cf       	rjmp	.-2      	; 0x20fa <main+0xc6>
    20fc:	f8 94       	cli
    20fe:	0b df       	rcall	.-490    	; 0x1f16 <InitialDev>
    2100:	78 94       	sei
    2102:	80 91 80 0d 	lds	r24, 0x0D80
    2106:	80 32       	cpi	r24, 0x20	; 32
    2108:	08 f0       	brcs	.+2      	; 0x210c <main+0xd8>
    210a:	39 c0       	rjmp	.+114    	; 0x217e <main+0x14a>
    210c:	0e 94 82 08 	call	0x1104	; 0x1104 <SoftResetSock>
    2110:	20 91 80 0d 	lds	r18, 0x0D80
    2114:	82 2f       	mov	r24, r18
    2116:	8f 70       	andi	r24, 0x0F	; 15
    2118:	c8 2e       	mov	r12, r24
    211a:	d1 2c       	mov	r13, r1
    211c:	e1 2c       	mov	r14, r1
    211e:	f1 2c       	mov	r15, r1
    2120:	c7 01       	movw	r24, r14
    2122:	b6 01       	movw	r22, r12
    2124:	6e 5c       	subi	r22, 0xCE	; 206
    2126:	7f 4f       	sbci	r23, 0xFF	; 255
    2128:	87 45       	sbci	r24, 0x57	; 87
    212a:	9e 43       	sbci	r25, 0x3E	; 62
    212c:	22 95       	swap	r18
    212e:	2f 70       	andi	r18, 0x0F	; 15
    2130:	21 30       	cpi	r18, 0x01	; 1
    2132:	31 f4       	brne	.+12     	; 0x2140 <main+0x10c>
    2134:	c7 01       	movw	r24, r14
    2136:	b6 01       	movw	r22, r12
    2138:	6e 5b       	subi	r22, 0xBE	; 190
    213a:	7f 4f       	sbci	r23, 0xFF	; 255
    213c:	87 45       	sbci	r24, 0x57	; 87
    213e:	9e 43       	sbci	r25, 0x3E	; 62
    2140:	59 d8       	rcall	.-3918   	; 0x11f4 <SetSrcIpAddress>
    2142:	61 e0       	ldi	r22, 0x01	; 1
    2144:	70 e0       	ldi	r23, 0x00	; 0
    2146:	88 ea       	ldi	r24, 0xA8	; 168
    2148:	91 ec       	ldi	r25, 0xC1	; 193
    214a:	0e 94 a0 08 	call	0x1140	; 0x1140 <SetGatewayAddress>
    214e:	60 e0       	ldi	r22, 0x00	; 0
    2150:	7f ef       	ldi	r23, 0xFF	; 255
    2152:	8f ef       	ldi	r24, 0xFF	; 255
    2154:	9f ef       	ldi	r25, 0xFF	; 255
    2156:	0c d8       	rcall	.-4072   	; 0x1170 <SetSubnetMaskAddress>
    2158:	80 e0       	ldi	r24, 0x00	; 0
    215a:	90 e0       	ldi	r25, 0x00	; 0
    215c:	fc 01       	movw	r30, r24
    215e:	e2 54       	subi	r30, 0x42	; 66
    2160:	f8 4f       	sbci	r31, 0xF8	; 248
    2162:	e4 91       	lpm	r30, Z
    2164:	dc 01       	movw	r26, r24
    2166:	ac 59       	subi	r26, 0x9C	; 156
    2168:	b5 4f       	sbci	r27, 0xF5	; 245
    216a:	ec 93       	st	X, r30
    216c:	01 96       	adiw	r24, 0x01	; 1
    216e:	86 30       	cpi	r24, 0x06	; 6
    2170:	91 05       	cpc	r25, r1
    2172:	a1 f7       	brne	.-24     	; 0x215c <main+0x128>
    2174:	84 e6       	ldi	r24, 0x64	; 100
    2176:	9a e0       	ldi	r25, 0x0A	; 10
    2178:	13 d8       	rcall	.-4058   	; 0x11a0 <SetSrcHwAddress>
    217a:	8f ef       	ldi	r24, 0xFF	; 255
    217c:	53 d8       	rcall	.-3930   	; 0x1224 <SetSockIntMask>
    217e:	80 91 7f 0d 	lds	r24, 0x0D7F
    2182:	8f 93       	push	r24
    2184:	80 91 7e 0d 	lds	r24, 0x0D7E
    2188:	8f 93       	push	r24
    218a:	80 91 7d 0d 	lds	r24, 0x0D7D
    218e:	1f 92       	push	r1
    2190:	8f 93       	push	r24
    2192:	80 91 7c 0d 	lds	r24, 0x0D7C
    2196:	1f 92       	push	r1
    2198:	8f 93       	push	r24
    219a:	85 e4       	ldi	r24, 0x45	; 69
    219c:	96 e0       	ldi	r25, 0x06	; 6
    219e:	9f 93       	push	r25
    21a0:	8f 93       	push	r24
    21a2:	b6 d6       	rcall	.+3436   	; 0x2f10 <printf_P>
    21a4:	80 91 80 0d 	lds	r24, 0x0D80
    21a8:	82 95       	swap	r24
    21aa:	8f 70       	andi	r24, 0x0F	; 15
    21ac:	0f b6       	in	r0, 0x3f	; 63
    21ae:	f8 94       	cli
    21b0:	de bf       	out	0x3e, r29	; 62
    21b2:	0f be       	out	0x3f, r0	; 63
    21b4:	cd bf       	out	0x3d, r28	; 61
    21b6:	82 30       	cpi	r24, 0x02	; 2
    21b8:	08 f0       	brcs	.+2      	; 0x21bc <main+0x188>
    21ba:	40 c0       	rjmp	.+128    	; 0x223c <main+0x208>
    21bc:	81 11       	cpse	r24, r1
    21be:	03 c0       	rjmp	.+6      	; 0x21c6 <main+0x192>
    21c0:	8d e7       	ldi	r24, 0x7D	; 125
    21c2:	97 e0       	ldi	r25, 0x07	; 7
    21c4:	02 c0       	rjmp	.+4      	; 0x21ca <main+0x196>
    21c6:	86 e3       	ldi	r24, 0x36	; 54
    21c8:	97 e0       	ldi	r25, 0x07	; 7
    21ca:	9f 93       	push	r25
    21cc:	8f 93       	push	r24
    21ce:	a0 d6       	rcall	.+3392   	; 0x2f10 <printf_P>
    21d0:	0f 90       	pop	r0
    21d2:	0f 90       	pop	r0
    21d4:	8f e3       	ldi	r24, 0x3F	; 63
    21d6:	96 e0       	ldi	r25, 0x06	; 6
    21d8:	9f 93       	push	r25
    21da:	8f 93       	push	r24
    21dc:	99 d6       	rcall	.+3378   	; 0x2f10 <printf_P>
    21de:	0e 94 e4 08 	call	0x11c8	; 0x11c8 <GetSrcIpAddress>
    21e2:	6a db       	rcall	.-2348   	; 0x18b8 <PrintIP>
    21e4:	8b e3       	ldi	r24, 0x3B	; 59
    21e6:	96 e0       	ldi	r25, 0x06	; 6
    21e8:	9f 93       	push	r25
    21ea:	8f 93       	push	r24
    21ec:	91 d6       	rcall	.+3362   	; 0x2f10 <printf_P>
    21ee:	80 91 80 0d 	lds	r24, 0x0D80
    21f2:	98 2f       	mov	r25, r24
    21f4:	92 95       	swap	r25
    21f6:	9f 70       	andi	r25, 0x0F	; 15
    21f8:	0f 90       	pop	r0
    21fa:	0f 90       	pop	r0
    21fc:	0f 90       	pop	r0
    21fe:	0f 90       	pop	r0
    2200:	69 f4       	brne	.+26     	; 0x221c <main+0x1e8>
    2202:	80 91 81 0d 	lds	r24, 0x0D81
    2206:	82 60       	ori	r24, 0x02	; 2
    2208:	80 93 81 0d 	sts	0x0D81, r24
    220c:	80 e1       	ldi	r24, 0x10	; 16
    220e:	80 93 74 0b 	sts	0x0B74, r24
    2212:	10 92 73 0b 	sts	0x0B73, r1
    2216:	10 92 75 0b 	sts	0x0B75, r1
    221a:	03 c0       	rjmp	.+6      	; 0x2222 <main+0x1ee>
    221c:	8f 70       	andi	r24, 0x0F	; 15
    221e:	0e 94 3f 05 	call	0xa7e	; 0xa7e <InitialChannels>
    2222:	84 e1       	ldi	r24, 0x14	; 20
    2224:	90 e0       	ldi	r25, 0x00	; 0
    2226:	6a de       	rcall	.-812    	; 0x1efc <Delay>
    2228:	33 24       	eor	r3, r3
    222a:	3a 94       	dec	r3
    222c:	88 24       	eor	r8, r8
    222e:	83 94       	inc	r8
    2230:	91 2c       	mov	r9, r1
    2232:	ba e0       	ldi	r27, 0x0A	; 10
    2234:	ab 2e       	mov	r10, r27
    2236:	bb 24       	eor	r11, r11
    2238:	b3 94       	inc	r11
    223a:	3b c0       	rjmp	.+118    	; 0x22b2 <main+0x27e>
    223c:	86 ef       	ldi	r24, 0xF6	; 246
    223e:	96 e0       	ldi	r25, 0x06	; 6
    2240:	9f 93       	push	r25
    2242:	8f 93       	push	r24
    2244:	65 d6       	rcall	.+3274   	; 0x2f10 <printf_P>
    2246:	80 91 80 0d 	lds	r24, 0x0D80
    224a:	98 2f       	mov	r25, r24
    224c:	9f 70       	andi	r25, 0x0F	; 15
    224e:	1f 92       	push	r1
    2250:	9f 93       	push	r25
    2252:	82 95       	swap	r24
    2254:	8f 70       	andi	r24, 0x0F	; 15
    2256:	1f 92       	push	r1
    2258:	8f 93       	push	r24
    225a:	89 e2       	ldi	r24, 0x29	; 41
    225c:	96 e0       	ldi	r25, 0x06	; 6
    225e:	9f 93       	push	r25
    2260:	8f 93       	push	r24
    2262:	56 d6       	rcall	.+3244   	; 0x2f10 <printf_P>
    2264:	0f b6       	in	r0, 0x3f	; 63
    2266:	f8 94       	cli
    2268:	de bf       	out	0x3e, r29	; 62
    226a:	0f be       	out	0x3f, r0	; 63
    226c:	cd bf       	out	0x3d, r28	; 61
    226e:	dc cf       	rjmp	.-72     	; 0x2228 <main+0x1f4>
    2270:	80 e0       	ldi	r24, 0x00	; 0
    2272:	0e 94 15 09 	call	0x122a	; 0x122a <GetSockStatus>
    2276:	18 2f       	mov	r17, r24
    2278:	83 11       	cpse	r24, r3
    227a:	21 c0       	rjmp	.+66     	; 0x22be <main+0x28a>
    227c:	17 31       	cpi	r17, 0x17	; 23
    227e:	a9 f1       	breq	.+106    	; 0x22ea <main+0x2b6>
    2280:	1c 31       	cpi	r17, 0x1C	; 28
    2282:	09 f4       	brne	.+2      	; 0x2286 <main+0x252>
    2284:	88 c0       	rjmp	.+272    	; 0x2396 <main+0x362>
    2286:	11 23       	and	r17, r17
    2288:	09 f4       	brne	.+2      	; 0x228c <main+0x258>
    228a:	91 c0       	rjmp	.+290    	; 0x23ae <main+0x37a>
    228c:	80 91 60 09 	lds	r24, 0x0960
    2290:	90 91 61 09 	lds	r25, 0x0961
    2294:	18 16       	cp	r1, r24
    2296:	19 06       	cpc	r1, r25
    2298:	0c f4       	brge	.+2      	; 0x229c <main+0x268>
    229a:	a7 db       	rcall	.-2226   	; 0x19ea <HostCommand>
    229c:	80 91 80 0d 	lds	r24, 0x0D80
    22a0:	82 95       	swap	r24
    22a2:	8f 70       	andi	r24, 0x0F	; 15
    22a4:	09 f0       	breq	.+2      	; 0x22a8 <main+0x274>
    22a6:	79 c1       	rjmp	.+754    	; 0x259a <main+0x566>
    22a8:	80 91 76 0b 	lds	r24, 0x0B76
    22ac:	88 23       	and	r24, r24
    22ae:	09 f4       	brne	.+2      	; 0x22b2 <main+0x27e>
    22b0:	e5 c0       	rjmp	.+458    	; 0x247c <main+0x448>
    22b2:	80 91 80 0d 	lds	r24, 0x0D80
    22b6:	80 32       	cpi	r24, 0x20	; 32
    22b8:	08 f0       	brcs	.+2      	; 0x22bc <main+0x288>
    22ba:	4a c2       	rjmp	.+1172   	; 0x2750 <main+0x71c>
    22bc:	d9 cf       	rjmp	.-78     	; 0x2270 <main+0x23c>
    22be:	80 91 68 0b 	lds	r24, 0x0B68
    22c2:	80 ff       	sbrs	r24, 0
    22c4:	0d c0       	rjmp	.+26     	; 0x22e0 <main+0x2ac>
    22c6:	1f 92       	push	r1
    22c8:	1f 93       	push	r17
    22ca:	8d e0       	ldi	r24, 0x0D	; 13
    22cc:	96 e0       	ldi	r25, 0x06	; 6
    22ce:	9f 93       	push	r25
    22d0:	8f 93       	push	r24
    22d2:	1e d6       	rcall	.+3132   	; 0x2f10 <printf_P>
    22d4:	0f 90       	pop	r0
    22d6:	0f 90       	pop	r0
    22d8:	0f 90       	pop	r0
    22da:	0f 90       	pop	r0
    22dc:	31 2e       	mov	r3, r17
    22de:	ce cf       	rjmp	.-100    	; 0x227c <main+0x248>
    22e0:	17 31       	cpi	r17, 0x17	; 23
    22e2:	09 f0       	breq	.+2      	; 0x22e6 <main+0x2b2>
    22e4:	54 c0       	rjmp	.+168    	; 0x238e <main+0x35a>
    22e6:	f7 e1       	ldi	r31, 0x17	; 23
    22e8:	3f 2e       	mov	r3, r31
    22ea:	80 91 81 0d 	lds	r24, 0x0D81
    22ee:	82 fd       	sbrc	r24, 2
    22f0:	1c c0       	rjmp	.+56     	; 0x232a <main+0x2f6>
    22f2:	90 91 64 0b 	lds	r25, 0x0B64
    22f6:	90 ff       	sbrs	r25, 0
    22f8:	03 c0       	rjmp	.+6      	; 0x2300 <main+0x2cc>
    22fa:	9e 7f       	andi	r25, 0xFE	; 254
    22fc:	90 93 64 0b 	sts	0x0B64, r25
    2300:	84 60       	ori	r24, 0x04	; 4
    2302:	80 93 81 0d 	sts	0x0D81, r24
    2306:	84 e0       	ldi	r24, 0x04	; 4
    2308:	96 e0       	ldi	r25, 0x06	; 6
    230a:	9f 93       	push	r25
    230c:	8f 93       	push	r24
    230e:	00 d6       	rcall	.+3072   	; 0x2f10 <printf_P>
    2310:	80 e0       	ldi	r24, 0x00	; 0
    2312:	0e 94 5a 09 	call	0x12b4	; 0x12b4 <GetSockDestIpAddress>
    2316:	d0 da       	rcall	.-2656   	; 0x18b8 <PrintIP>
    2318:	85 ef       	ldi	r24, 0xF5	; 245
    231a:	95 e0       	ldi	r25, 0x05	; 5
    231c:	9f 93       	push	r25
    231e:	8f 93       	push	r24
    2320:	f7 d5       	rcall	.+3054   	; 0x2f10 <printf_P>
    2322:	0f 90       	pop	r0
    2324:	0f 90       	pop	r0
    2326:	0f 90       	pop	r0
    2328:	0f 90       	pop	r0
    232a:	80 e0       	ldi	r24, 0x00	; 0
    232c:	0e 94 3e 09 	call	0x127c	; 0x127c <GetSockRecvedSize>
    2330:	18 16       	cp	r1, r24
    2332:	19 06       	cpc	r1, r25
    2334:	0c f0       	brlt	.+2      	; 0x2338 <main+0x304>
    2336:	aa cf       	rjmp	.-172    	; 0x228c <main+0x258>
    2338:	60 91 60 09 	lds	r22, 0x0960
    233c:	70 91 61 09 	lds	r23, 0x0961
    2340:	20 e0       	ldi	r18, 0x00	; 0
    2342:	31 e0       	ldi	r19, 0x01	; 1
    2344:	26 1b       	sub	r18, r22
    2346:	37 0b       	sbc	r19, r23
    2348:	ac 01       	movw	r20, r24
    234a:	28 17       	cp	r18, r24
    234c:	39 07       	cpc	r19, r25
    234e:	0c f4       	brge	.+2      	; 0x2352 <main+0x31e>
    2350:	a9 01       	movw	r20, r18
    2352:	6e 59       	subi	r22, 0x9E	; 158
    2354:	76 4f       	sbci	r23, 0xF6	; 246
    2356:	80 e0       	ldi	r24, 0x00	; 0
    2358:	6b d9       	rcall	.-3370   	; 0x1630 <RecvSock>
    235a:	20 91 60 09 	lds	r18, 0x0960
    235e:	30 91 61 09 	lds	r19, 0x0961
    2362:	28 0f       	add	r18, r24
    2364:	39 1f       	adc	r19, r25
    2366:	30 93 61 09 	sts	0x0961, r19
    236a:	20 93 60 09 	sts	0x0960, r18
    236e:	20 91 68 0b 	lds	r18, 0x0B68
    2372:	20 ff       	sbrs	r18, 0
    2374:	8b cf       	rjmp	.-234    	; 0x228c <main+0x258>
    2376:	9f 93       	push	r25
    2378:	8f 93       	push	r24
    237a:	8c ed       	ldi	r24, 0xDC	; 220
    237c:	95 e0       	ldi	r25, 0x05	; 5
    237e:	9f 93       	push	r25
    2380:	8f 93       	push	r24
    2382:	c6 d5       	rcall	.+2956   	; 0x2f10 <printf_P>
    2384:	0f 90       	pop	r0
    2386:	0f 90       	pop	r0
    2388:	0f 90       	pop	r0
    238a:	0f 90       	pop	r0
    238c:	7f cf       	rjmp	.-258    	; 0x228c <main+0x258>
    238e:	1c 31       	cpi	r17, 0x1C	; 28
    2390:	d1 f4       	brne	.+52     	; 0x23c6 <main+0x392>
    2392:	ec e1       	ldi	r30, 0x1C	; 28
    2394:	3e 2e       	mov	r3, r30
    2396:	80 91 81 0d 	lds	r24, 0x0D81
    239a:	8b 7f       	andi	r24, 0xFB	; 251
    239c:	80 93 81 0d 	sts	0x0D81, r24
    23a0:	80 e0       	ldi	r24, 0x00	; 0
    23a2:	e2 d8       	rcall	.-3644   	; 0x1568 <DisconnectSock>
    23a4:	8c ec       	ldi	r24, 0xCC	; 204
    23a6:	95 e0       	ldi	r25, 0x05	; 5
    23a8:	9f 93       	push	r25
    23aa:	8f 93       	push	r24
    23ac:	2a c0       	rjmp	.+84     	; 0x2402 <main+0x3ce>
    23ae:	80 91 68 0b 	lds	r24, 0x0B68
    23b2:	80 ff       	sbrs	r24, 0
    23b4:	0b c0       	rjmp	.+22     	; 0x23cc <main+0x398>
    23b6:	8c eb       	ldi	r24, 0xBC	; 188
    23b8:	95 e0       	ldi	r25, 0x05	; 5
    23ba:	9f 93       	push	r25
    23bc:	8f 93       	push	r24
    23be:	a8 d5       	rcall	.+2896   	; 0x2f10 <printf_P>
    23c0:	0f 90       	pop	r0
    23c2:	0f 90       	pop	r0
    23c4:	03 c0       	rjmp	.+6      	; 0x23cc <main+0x398>
    23c6:	11 11       	cpse	r17, r1
    23c8:	19 c3       	rjmp	.+1586   	; 0x29fc <main+0x9c8>
    23ca:	31 2c       	mov	r3, r1
    23cc:	80 91 81 0d 	lds	r24, 0x0D81
    23d0:	8b 7f       	andi	r24, 0xFB	; 251
    23d2:	80 93 81 0d 	sts	0x0D81, r24
    23d6:	20 e2       	ldi	r18, 0x20	; 32
    23d8:	48 e8       	ldi	r20, 0x88	; 136
    23da:	53 e1       	ldi	r21, 0x13	; 19
    23dc:	61 e0       	ldi	r22, 0x01	; 1
    23de:	80 e0       	ldi	r24, 0x00	; 0
    23e0:	68 d8       	rcall	.-3888   	; 0x14b2 <OpenSock>
    23e2:	80 e0       	ldi	r24, 0x00	; 0
    23e4:	aa d8       	rcall	.-3756   	; 0x153a <ListenSock>
    23e6:	81 11       	cpse	r24, r1
    23e8:	04 c0       	rjmp	.+8      	; 0x23f2 <main+0x3be>
    23ea:	4b d8       	rcall	.-3946   	; 0x1482 <CloseSock>
    23ec:	aa ea       	ldi	r26, 0xAA	; 170
    23ee:	b5 e0       	ldi	r27, 0x05	; 5
    23f0:	06 c0       	rjmp	.+12     	; 0x23fe <main+0x3ca>
    23f2:	80 91 68 0b 	lds	r24, 0x0B68
    23f6:	80 ff       	sbrs	r24, 0
    23f8:	49 cf       	rjmp	.-366    	; 0x228c <main+0x258>
    23fa:	ae e9       	ldi	r26, 0x9E	; 158
    23fc:	b5 e0       	ldi	r27, 0x05	; 5
    23fe:	bf 93       	push	r27
    2400:	af 93       	push	r26
    2402:	86 d5       	rcall	.+2828   	; 0x2f10 <printf_P>
    2404:	0f 90       	pop	r0
    2406:	0f 90       	pop	r0
    2408:	41 cf       	rjmp	.-382    	; 0x228c <main+0x258>
    240a:	40 e0       	ldi	r20, 0x00	; 0
    240c:	89 e7       	ldi	r24, 0x79	; 121
    240e:	9b e0       	ldi	r25, 0x0B	; 11
    2410:	69 d9       	rcall	.-3374   	; 0x16e4 <AbstractCmd>
    2412:	d4 2e       	mov	r13, r20
    2414:	86 2f       	mov	r24, r22
    2416:	29 83       	std	Y+1, r18	; 0x01
    2418:	3a 83       	std	Y+2, r19	; 0x02
    241a:	db 82       	std	Y+3, r13	; 0x03
    241c:	5c 83       	std	Y+4, r21	; 0x04
    241e:	6d 83       	std	Y+5, r22	; 0x05
    2420:	7e 83       	std	Y+6, r23	; 0x06
    2422:	69 81       	ldd	r22, Y+1	; 0x01
    2424:	7a 81       	ldd	r23, Y+2	; 0x02
    2426:	61 15       	cp	r22, r1
    2428:	71 05       	cpc	r23, r1
    242a:	09 f4       	brne	.+2      	; 0x242e <main+0x3fa>
    242c:	53 c0       	rjmp	.+166    	; 0x24d4 <main+0x4a0>
    242e:	90 91 81 0d 	lds	r25, 0x0D81
    2432:	05 2f       	mov	r16, r21
    2434:	10 e0       	ldi	r17, 0x00	; 0
    2436:	91 ff       	sbrs	r25, 1
    2438:	33 c0       	rjmp	.+102    	; 0x24a0 <main+0x46c>
    243a:	51 11       	cpse	r21, r1
    243c:	28 c0       	rjmp	.+80     	; 0x248e <main+0x45a>
    243e:	0d 0d       	add	r16, r13
    2440:	11 1d       	adc	r17, r1
    2442:	b8 01       	movw	r22, r16
    2444:	6f 5f       	subi	r22, 0xFF	; 255
    2446:	7f 4f       	sbci	r23, 0xFF	; 255
    2448:	80 91 77 0b 	lds	r24, 0x0B77
    244c:	90 91 78 0b 	lds	r25, 0x0B78
    2450:	68 17       	cp	r22, r24
    2452:	79 07       	cpc	r23, r25
    2454:	0c f0       	brlt	.+2      	; 0x2458 <main+0x424>
    2456:	3e c0       	rjmp	.+124    	; 0x24d4 <main+0x4a0>
    2458:	89 e7       	ldi	r24, 0x79	; 121
    245a:	9b e0       	ldi	r25, 0x0B	; 11
    245c:	0d da       	rcall	.-3046   	; 0x1878 <Shift>
    245e:	00 95       	com	r16
    2460:	10 95       	com	r17
    2462:	80 91 77 0b 	lds	r24, 0x0B77
    2466:	90 91 78 0b 	lds	r25, 0x0B78
    246a:	08 0f       	add	r16, r24
    246c:	19 1f       	adc	r17, r25
    246e:	10 93 78 0b 	sts	0x0B78, r17
    2472:	00 93 77 0b 	sts	0x0B77, r16
    2476:	82 e0       	ldi	r24, 0x02	; 2
    2478:	90 e0       	ldi	r25, 0x00	; 0
    247a:	40 dd       	rcall	.-1408   	; 0x1efc <Delay>
    247c:	60 91 77 0b 	lds	r22, 0x0B77
    2480:	70 91 78 0b 	lds	r23, 0x0B78
    2484:	16 16       	cp	r1, r22
    2486:	17 06       	cpc	r1, r23
    2488:	0c f4       	brge	.+2      	; 0x248c <main+0x458>
    248a:	bf cf       	rjmp	.-130    	; 0x240a <main+0x3d6>
    248c:	28 c0       	rjmp	.+80     	; 0x24de <main+0x4aa>
    248e:	9f ed       	ldi	r25, 0xDF	; 223
    2490:	98 0f       	add	r25, r24
    2492:	92 30       	cpi	r25, 0x02	; 2
    2494:	38 f4       	brcc	.+14     	; 0x24a4 <main+0x470>
    2496:	90 91 73 0b 	lds	r25, 0x0B73
    249a:	90 93 75 0b 	sts	0x0B75, r25
    249e:	02 c0       	rjmp	.+4      	; 0x24a4 <main+0x470>
    24a0:	55 23       	and	r21, r21
    24a2:	69 f2       	breq	.-102    	; 0x243e <main+0x40a>
    24a4:	82 31       	cpi	r24, 0x12	; 18
    24a6:	41 f0       	breq	.+16     	; 0x24b8 <main+0x484>
    24a8:	85 31       	cpi	r24, 0x15	; 21
    24aa:	31 f0       	breq	.+12     	; 0x24b8 <main+0x484>
    24ac:	98 2f       	mov	r25, r24
    24ae:	9f 7e       	andi	r25, 0xEF	; 239
    24b0:	91 32       	cpi	r25, 0x21	; 33
    24b2:	11 f0       	breq	.+4      	; 0x24b8 <main+0x484>
    24b4:	81 34       	cpi	r24, 0x41	; 65
    24b6:	19 f6       	brne	.-122    	; 0x243e <main+0x40a>
    24b8:	78 01       	movw	r14, r16
    24ba:	ff ef       	ldi	r31, 0xFF	; 255
    24bc:	ef 1a       	sub	r14, r31
    24be:	ff 0a       	sbc	r15, r31
    24c0:	a7 01       	movw	r20, r14
    24c2:	84 e6       	ldi	r24, 0x64	; 100
    24c4:	9a e0       	ldi	r25, 0x0A	; 10
    24c6:	1b d5       	rcall	.+2614   	; 0x2efe <memcpy>
    24c8:	a7 01       	movw	r20, r14
    24ca:	64 e6       	ldi	r22, 0x64	; 100
    24cc:	7a e0       	ldi	r23, 0x0A	; 10
    24ce:	80 e0       	ldi	r24, 0x00	; 0
    24d0:	57 d8       	rcall	.-3922   	; 0x1580 <SendSock>
    24d2:	b5 cf       	rjmp	.-150    	; 0x243e <main+0x40a>
    24d4:	10 92 78 0b 	sts	0x0B78, r1
    24d8:	10 92 77 0b 	sts	0x0B77, r1
    24dc:	cc cf       	rjmp	.-104    	; 0x2476 <main+0x442>
    24de:	80 91 79 0c 	lds	r24, 0x0C79
    24e2:	90 91 7a 0c 	lds	r25, 0x0C7A
    24e6:	18 16       	cp	r1, r24
    24e8:	19 06       	cpc	r1, r25
    24ea:	d4 f4       	brge	.+52     	; 0x2520 <main+0x4ec>
    24ec:	00 91 7b 0c 	lds	r16, 0x0C7B
    24f0:	0f 5f       	subi	r16, 0xFF	; 255
    24f2:	60 2f       	mov	r22, r16
    24f4:	8b e7       	ldi	r24, 0x7B	; 123
    24f6:	9c e0       	ldi	r25, 0x0C	; 12
    24f8:	1a dc       	rcall	.-1996   	; 0x1d2e <PutsLB>
    24fa:	8a e0       	ldi	r24, 0x0A	; 10
    24fc:	80 93 76 0b 	sts	0x0B76, r24
    2500:	10 e0       	ldi	r17, 0x00	; 0
    2502:	b8 01       	movw	r22, r16
    2504:	8b e7       	ldi	r24, 0x7B	; 123
    2506:	9c e0       	ldi	r25, 0x0C	; 12
    2508:	b7 d9       	rcall	.-3218   	; 0x1878 <Shift>
    250a:	80 91 79 0c 	lds	r24, 0x0C79
    250e:	90 91 7a 0c 	lds	r25, 0x0C7A
    2512:	80 1b       	sub	r24, r16
    2514:	91 0b       	sbc	r25, r17
    2516:	90 93 7a 0c 	sts	0x0C7A, r25
    251a:	80 93 79 0c 	sts	0x0C79, r24
    251e:	c9 ce       	rjmp	.-622    	; 0x22b2 <main+0x27e>
    2520:	80 91 74 0b 	lds	r24, 0x0B74
    2524:	88 23       	and	r24, r24
    2526:	09 f4       	brne	.+2      	; 0x252a <main+0x4f6>
    2528:	c4 ce       	rjmp	.-632    	; 0x22b2 <main+0x27e>
    252a:	90 91 73 0b 	lds	r25, 0x0B73
    252e:	98 17       	cp	r25, r24
    2530:	c0 f0       	brcs	.+48     	; 0x2562 <main+0x52e>
    2532:	80 91 81 0d 	lds	r24, 0x0D81
    2536:	81 ff       	sbrs	r24, 1
    2538:	12 c0       	rjmp	.+36     	; 0x255e <main+0x52a>
    253a:	90 91 75 0b 	lds	r25, 0x0B75
    253e:	90 93 74 0b 	sts	0x0B74, r25
    2542:	8d 7f       	andi	r24, 0xFD	; 253
    2544:	80 93 81 0d 	sts	0x0D81, r24
    2548:	1f 92       	push	r1
    254a:	9f 93       	push	r25
    254c:	a2 e8       	ldi	r26, 0x82	; 130
    254e:	b5 e0       	ldi	r27, 0x05	; 5
    2550:	bf 93       	push	r27
    2552:	af 93       	push	r26
    2554:	dd d4       	rcall	.+2490   	; 0x2f10 <printf_P>
    2556:	0f 90       	pop	r0
    2558:	0f 90       	pop	r0
    255a:	0f 90       	pop	r0
    255c:	0f 90       	pop	r0
    255e:	10 92 73 0b 	sts	0x0B73, r1
    2562:	80 91 74 0b 	lds	r24, 0x0B74
    2566:	88 23       	and	r24, r24
    2568:	09 f4       	brne	.+2      	; 0x256c <main+0x538>
    256a:	a3 ce       	rjmp	.-698    	; 0x22b2 <main+0x27e>
    256c:	82 e0       	ldi	r24, 0x02	; 2
    256e:	80 93 7b 0c 	sts	0x0C7B, r24
    2572:	82 e2       	ldi	r24, 0x22	; 34
    2574:	80 93 7c 0c 	sts	0x0C7C, r24
    2578:	80 91 73 0b 	lds	r24, 0x0B73
    257c:	91 e0       	ldi	r25, 0x01	; 1
    257e:	98 0f       	add	r25, r24
    2580:	90 93 73 0b 	sts	0x0B73, r25
    2584:	80 65       	ori	r24, 0x50	; 80
    2586:	80 93 7d 0c 	sts	0x0C7D, r24
    258a:	63 e0       	ldi	r22, 0x03	; 3
    258c:	8b e7       	ldi	r24, 0x7B	; 123
    258e:	9c e0       	ldi	r25, 0x0C	; 12
    2590:	ce db       	rcall	.-2148   	; 0x1d2e <PutsLB>
    2592:	8a e0       	ldi	r24, 0x0A	; 10
    2594:	80 93 76 0b 	sts	0x0B76, r24
    2598:	8c ce       	rjmp	.-744    	; 0x22b2 <main+0x27e>
    259a:	86 b3       	in	r24, 0x16	; 22
    259c:	98 b3       	in	r25, 0x18	; 24
    259e:	89 23       	and	r24, r25
    25a0:	8d 7f       	andi	r24, 0xFD	; 253
    25a2:	88 bb       	out	0x18, r24	; 24
    25a4:	80 91 0e 01 	lds	r24, 0x010E
    25a8:	81 11       	cpse	r24, r1
    25aa:	06 c0       	rjmp	.+12     	; 0x25b8 <main+0x584>
    25ac:	86 b3       	in	r24, 0x16	; 22
    25ae:	98 b3       	in	r25, 0x18	; 24
    25b0:	82 60       	ori	r24, 0x02	; 2
    25b2:	89 2b       	or	r24, r25
    25b4:	88 bb       	out	0x18, r24	; 24
    25b6:	7d ce       	rjmp	.-774    	; 0x22b2 <main+0x27e>
    25b8:	66 e1       	ldi	r22, 0x16	; 22
    25ba:	e6 2e       	mov	r14, r22
    25bc:	62 e0       	ldi	r22, 0x02	; 2
    25be:	f6 2e       	mov	r15, r22
    25c0:	76 e9       	ldi	r23, 0x96	; 150
    25c2:	c7 2e       	mov	r12, r23
    25c4:	71 e0       	ldi	r23, 0x01	; 1
    25c6:	d7 2e       	mov	r13, r23
    25c8:	00 e0       	ldi	r16, 0x00	; 0
    25ca:	10 e0       	ldi	r17, 0x00	; 0
    25cc:	20 2e       	mov	r2, r16
    25ce:	80 91 0e 01 	lds	r24, 0x010E
    25d2:	90 e0       	ldi	r25, 0x00	; 0
    25d4:	00 2e       	mov	r0, r16
    25d6:	02 c0       	rjmp	.+4      	; 0x25dc <main+0x5a8>
    25d8:	95 95       	asr	r25
    25da:	87 95       	ror	r24
    25dc:	0a 94       	dec	r0
    25de:	e2 f7       	brpl	.-8      	; 0x25d8 <main+0x5a4>
    25e0:	80 ff       	sbrs	r24, 0
    25e2:	a7 c0       	rjmp	.+334    	; 0x2732 <main+0x6fe>
    25e4:	d7 01       	movw	r26, r14
    25e6:	6c 91       	ld	r22, X
    25e8:	63 30       	cpi	r22, 0x03	; 3
    25ea:	08 f4       	brcc	.+2      	; 0x25ee <main+0x5ba>
    25ec:	7f c0       	rjmp	.+254    	; 0x26ec <main+0x6b8>
    25ee:	0a 9d       	mul	r16, r10
    25f0:	20 01       	movw	r4, r0
    25f2:	0b 9d       	mul	r16, r11
    25f4:	50 0c       	add	r5, r0
    25f6:	1a 9d       	mul	r17, r10
    25f8:	50 0c       	add	r5, r0
    25fa:	11 24       	eor	r1, r1
    25fc:	f2 01       	movw	r30, r4
    25fe:	ee 5e       	subi	r30, 0xEE	; 238
    2600:	fe 4f       	sbci	r31, 0xFE	; 254
    2602:	80 81       	ld	r24, Z
    2604:	82 95       	swap	r24
    2606:	83 70       	andi	r24, 0x03	; 3
    2608:	82 30       	cpi	r24, 0x02	; 2
    260a:	91 f1       	breq	.+100    	; 0x2670 <main+0x63c>
    260c:	83 30       	cpi	r24, 0x03	; 3
    260e:	09 f0       	breq	.+2      	; 0x2612 <main+0x5de>
    2610:	cf c1       	rjmp	.+926    	; 0x29b0 <main+0x97c>
    2612:	f2 01       	movw	r30, r4
    2614:	e1 5f       	subi	r30, 0xF1	; 241
    2616:	fe 4f       	sbci	r31, 0xFE	; 254
    2618:	2f 01       	movw	r4, r30
    261a:	80 81       	ld	r24, Z
    261c:	8f 70       	andi	r24, 0x0F	; 15
    261e:	0e 94 ec 06 	call	0xdd8	; 0xdd8 <GetDeviceAddress>
    2622:	d2 01       	movw	r26, r4
    2624:	2c 91       	ld	r18, X
    2626:	2a 5f       	subi	r18, 0xFA	; 250
    2628:	2f 70       	andi	r18, 0x0F	; 15
    262a:	22 30       	cpi	r18, 0x02	; 2
    262c:	b0 f4       	brcc	.+44     	; 0x265a <main+0x626>
    262e:	f6 01       	movw	r30, r12
    2630:	20 81       	ld	r18, Z
    2632:	28 13       	cpse	r18, r24
    2634:	6e c0       	rjmp	.+220    	; 0x2712 <main+0x6de>
    2636:	f7 01       	movw	r30, r14
    2638:	ef 57       	subi	r30, 0x7F	; 127
    263a:	f1 09       	sbc	r31, r1
    263c:	80 81       	ld	r24, Z
    263e:	69 2e       	mov	r6, r25
    2640:	71 2c       	mov	r7, r1
    2642:	89 17       	cp	r24, r25
    2644:	08 f4       	brcc	.+2      	; 0x2648 <main+0x614>
    2646:	65 c0       	rjmp	.+202    	; 0x2712 <main+0x6de>
    2648:	90 e0       	ldi	r25, 0x00	; 0
    264a:	93 01       	movw	r18, r6
    264c:	2d 5f       	subi	r18, 0xFD	; 253
    264e:	3f 4f       	sbci	r19, 0xFF	; 255
    2650:	28 17       	cp	r18, r24
    2652:	39 07       	cpc	r19, r25
    2654:	0c f0       	brlt	.+2      	; 0x2658 <main+0x624>
    2656:	ac c1       	rjmp	.+856    	; 0x29b0 <main+0x97c>
    2658:	5c c0       	rjmp	.+184    	; 0x2712 <main+0x6de>
    265a:	d6 01       	movw	r26, r12
    265c:	2c 91       	ld	r18, X
    265e:	28 13       	cpse	r18, r24
    2660:	58 c0       	rjmp	.+176    	; 0x2712 <main+0x6de>
    2662:	f7 01       	movw	r30, r14
    2664:	ef 57       	subi	r30, 0x7F	; 127
    2666:	f1 09       	sbc	r31, r1
    2668:	80 81       	ld	r24, Z
    266a:	89 13       	cpse	r24, r25
    266c:	52 c0       	rjmp	.+164    	; 0x2712 <main+0x6de>
    266e:	a0 c1       	rjmp	.+832    	; 0x29b0 <main+0x97c>
    2670:	70 e0       	ldi	r23, 0x00	; 0
    2672:	62 50       	subi	r22, 0x02	; 2
    2674:	71 09       	sbc	r23, r1
    2676:	c6 01       	movw	r24, r12
    2678:	0e 94 02 04 	call	0x804	; 0x804 <Crc16>
    267c:	f7 01       	movw	r30, r14
    267e:	40 81       	ld	r20, Z
    2680:	50 e0       	ldi	r21, 0x00	; 0
    2682:	92 01       	movw	r18, r4
    2684:	22 5f       	subi	r18, 0xF2	; 242
    2686:	3e 4f       	sbci	r19, 0xFE	; 254
    2688:	29 01       	movw	r4, r18
    268a:	44 0e       	add	r4, r20
    268c:	55 1e       	adc	r5, r21
    268e:	f2 01       	movw	r30, r4
    2690:	ea 57       	subi	r30, 0x7A	; 122
    2692:	ff 4f       	sbci	r31, 0xFF	; 255
    2694:	60 81       	ld	r22, Z
    2696:	68 13       	cpse	r22, r24
    2698:	05 c0       	rjmp	.+10     	; 0x26a4 <main+0x670>
    269a:	31 96       	adiw	r30, 0x01	; 1
    269c:	20 81       	ld	r18, Z
    269e:	29 17       	cp	r18, r25
    26a0:	09 f4       	brne	.+2      	; 0x26a4 <main+0x670>
    26a2:	86 c1       	rjmp	.+780    	; 0x29b0 <main+0x97c>
    26a4:	20 91 68 0b 	lds	r18, 0x0B68
    26a8:	23 ff       	sbrs	r18, 3
    26aa:	33 c0       	rjmp	.+102    	; 0x2712 <main+0x6de>
    26ac:	0a 9d       	mul	r16, r10
    26ae:	90 01       	movw	r18, r0
    26b0:	0b 9d       	mul	r16, r11
    26b2:	30 0d       	add	r19, r0
    26b4:	1a 9d       	mul	r17, r10
    26b6:	30 0d       	add	r19, r0
    26b8:	11 24       	eor	r1, r1
    26ba:	24 0f       	add	r18, r20
    26bc:	35 1f       	adc	r19, r21
    26be:	f9 01       	movw	r30, r18
    26c0:	eb 56       	subi	r30, 0x6B	; 107
    26c2:	fe 4f       	sbci	r31, 0xFE	; 254
    26c4:	20 81       	ld	r18, Z
    26c6:	1f 92       	push	r1
    26c8:	2f 93       	push	r18
    26ca:	1f 92       	push	r1
    26cc:	6f 93       	push	r22
    26ce:	9f 93       	push	r25
    26d0:	8f 93       	push	r24
    26d2:	1f 93       	push	r17
    26d4:	0f 93       	push	r16
    26d6:	a3 e5       	ldi	r26, 0x53	; 83
    26d8:	b5 e0       	ldi	r27, 0x05	; 5
    26da:	bf 93       	push	r27
    26dc:	af 93       	push	r26
    26de:	18 d4       	rcall	.+2096   	; 0x2f10 <printf_P>
    26e0:	0f b6       	in	r0, 0x3f	; 63
    26e2:	f8 94       	cli
    26e4:	de bf       	out	0x3e, r29	; 62
    26e6:	0f be       	out	0x3f, r0	; 63
    26e8:	cd bf       	out	0x3d, r28	; 61
    26ea:	13 c0       	rjmp	.+38     	; 0x2712 <main+0x6de>
    26ec:	80 91 68 0b 	lds	r24, 0x0B68
    26f0:	83 ff       	sbrs	r24, 3
    26f2:	0f c0       	rjmp	.+30     	; 0x2712 <main+0x6de>
    26f4:	1f 92       	push	r1
    26f6:	6f 93       	push	r22
    26f8:	1f 93       	push	r17
    26fa:	0f 93       	push	r16
    26fc:	a1 e3       	ldi	r26, 0x31	; 49
    26fe:	b5 e0       	ldi	r27, 0x05	; 5
    2700:	bf 93       	push	r27
    2702:	af 93       	push	r26
    2704:	05 d4       	rcall	.+2058   	; 0x2f10 <printf_P>
    2706:	0f 90       	pop	r0
    2708:	0f 90       	pop	r0
    270a:	0f 90       	pop	r0
    270c:	0f 90       	pop	r0
    270e:	0f 90       	pop	r0
    2710:	0f 90       	pop	r0
    2712:	f8 94       	cli
    2714:	d7 01       	movw	r26, r14
    2716:	1c 92       	st	X, r1
    2718:	c4 01       	movw	r24, r8
    271a:	00 2e       	mov	r0, r16
    271c:	01 c0       	rjmp	.+2      	; 0x2720 <main+0x6ec>
    271e:	88 0f       	add	r24, r24
    2720:	0a 94       	dec	r0
    2722:	ea f7       	brpl	.-6      	; 0x271e <main+0x6ea>
    2724:	80 95       	com	r24
    2726:	90 91 0e 01 	lds	r25, 0x010E
    272a:	89 23       	and	r24, r25
    272c:	80 93 0e 01 	sts	0x010E, r24
    2730:	78 94       	sei
    2732:	0f 5f       	subi	r16, 0xFF	; 255
    2734:	1f 4f       	sbci	r17, 0xFF	; 255
    2736:	b6 ef       	ldi	r27, 0xF6	; 246
    2738:	eb 1a       	sub	r14, r27
    273a:	be ef       	ldi	r27, 0xFE	; 254
    273c:	fb 0a       	sbc	r15, r27
    273e:	e6 ef       	ldi	r30, 0xF6	; 246
    2740:	ce 1a       	sub	r12, r30
    2742:	ee ef       	ldi	r30, 0xFE	; 254
    2744:	de 0a       	sbc	r13, r30
    2746:	08 30       	cpi	r16, 0x08	; 8
    2748:	11 05       	cpc	r17, r1
    274a:	09 f0       	breq	.+2      	; 0x274e <main+0x71a>
    274c:	3f cf       	rjmp	.-386    	; 0x25cc <main+0x598>
    274e:	2e cf       	rjmp	.-420    	; 0x25ac <main+0x578>
    2750:	60 91 77 0b 	lds	r22, 0x0B77
    2754:	70 91 78 0b 	lds	r23, 0x0B78
    2758:	16 16       	cp	r1, r22
    275a:	17 06       	cpc	r1, r23
    275c:	0c f0       	brlt	.+2      	; 0x2760 <main+0x72c>
    275e:	a9 cd       	rjmp	.-1198   	; 0x22b2 <main+0x27e>
    2760:	80 91 76 0b 	lds	r24, 0x0B76
    2764:	81 11       	cpse	r24, r1
    2766:	a5 cd       	rjmp	.-1206   	; 0x22b2 <main+0x27e>
    2768:	41 e0       	ldi	r20, 0x01	; 1
    276a:	89 e7       	ldi	r24, 0x79	; 121
    276c:	9b e0       	ldi	r25, 0x0B	; 11
    276e:	0e 94 72 0b 	call	0x16e4	; 0x16e4 <AbstractCmd>
    2772:	8a 01       	movw	r16, r20
    2774:	29 83       	std	Y+1, r18	; 0x01
    2776:	3a 83       	std	Y+2, r19	; 0x02
    2778:	4b 83       	std	Y+3, r20	; 0x03
    277a:	1c 83       	std	Y+4, r17	; 0x04
    277c:	6d 83       	std	Y+5, r22	; 0x05
    277e:	7e 83       	std	Y+6, r23	; 0x06
    2780:	e9 81       	ldd	r30, Y+1	; 0x01
    2782:	fa 81       	ldd	r31, Y+2	; 0x02
    2784:	30 97       	sbiw	r30, 0x00	; 0
    2786:	29 f4       	brne	.+10     	; 0x2792 <main+0x75e>
    2788:	10 92 78 0b 	sts	0x0B78, r1
    278c:	10 92 77 0b 	sts	0x0B77, r1
    2790:	90 cd       	rjmp	.-1248   	; 0x22b2 <main+0x27e>
    2792:	80 91 80 0d 	lds	r24, 0x0D80
    2796:	78 27       	eor	r23, r24
    2798:	7f 70       	andi	r23, 0x0F	; 15
    279a:	09 f0       	breq	.+2      	; 0x279e <main+0x76a>
    279c:	e7 c0       	rjmp	.+462    	; 0x296c <main+0x938>
    279e:	82 95       	swap	r24
    27a0:	8f 70       	andi	r24, 0x0F	; 15
    27a2:	83 30       	cpi	r24, 0x03	; 3
    27a4:	51 f1       	breq	.+84     	; 0x27fa <main+0x7c6>
    27a6:	84 30       	cpi	r24, 0x04	; 4
    27a8:	09 f4       	brne	.+2      	; 0x27ac <main+0x778>
    27aa:	89 c0       	rjmp	.+274    	; 0x28be <main+0x88a>
    27ac:	82 30       	cpi	r24, 0x02	; 2
    27ae:	09 f0       	breq	.+2      	; 0x27b2 <main+0x77e>
    27b0:	dd c0       	rjmp	.+442    	; 0x296c <main+0x938>
    27b2:	61 32       	cpi	r22, 0x21	; 33
    27b4:	f1 f0       	breq	.+60     	; 0x27f2 <main+0x7be>
    27b6:	62 32       	cpi	r22, 0x22	; 34
    27b8:	51 f0       	breq	.+20     	; 0x27ce <main+0x79a>
    27ba:	60 32       	cpi	r22, 0x20	; 32
    27bc:	09 f0       	breq	.+2      	; 0x27c0 <main+0x78c>
    27be:	d6 c0       	rjmp	.+428    	; 0x296c <main+0x938>
    27c0:	10 92 19 01 	sts	0x0119, r1
    27c4:	10 92 18 01 	sts	0x0118, r1
    27c8:	10 92 17 01 	sts	0x0117, r1
    27cc:	cf c0       	rjmp	.+414    	; 0x296c <main+0x938>
    27ce:	90 91 14 01 	lds	r25, 0x0114
    27d2:	80 91 17 01 	lds	r24, 0x0117
    27d6:	98 13       	cpse	r25, r24
    27d8:	0c c0       	rjmp	.+24     	; 0x27f2 <main+0x7be>
    27da:	90 91 15 01 	lds	r25, 0x0115
    27de:	80 91 18 01 	lds	r24, 0x0118
    27e2:	98 13       	cpse	r25, r24
    27e4:	06 c0       	rjmp	.+12     	; 0x27f2 <main+0x7be>
    27e6:	90 91 16 01 	lds	r25, 0x0116
    27ea:	80 91 19 01 	lds	r24, 0x0119
    27ee:	98 17       	cp	r25, r24
    27f0:	11 f0       	breq	.+4      	; 0x27f6 <main+0x7c2>
    27f2:	bf da       	rcall	.-2690   	; 0x1d72 <InpReport>
    27f4:	bb c0       	rjmp	.+374    	; 0x296c <main+0x938>
    27f6:	e3 da       	rcall	.-2618   	; 0x1dbe <InpNullReport>
    27f8:	b9 c0       	rjmp	.+370    	; 0x296c <main+0x938>
    27fa:	62 33       	cpi	r22, 0x32	; 50
    27fc:	c1 f0       	breq	.+48     	; 0x282e <main+0x7fa>
    27fe:	28 f4       	brcc	.+10     	; 0x280a <main+0x7d6>
    2800:	60 33       	cpi	r22, 0x30	; 48
    2802:	41 f0       	breq	.+16     	; 0x2814 <main+0x7e0>
    2804:	61 33       	cpi	r22, 0x31	; 49
    2806:	29 f1       	breq	.+74     	; 0x2852 <main+0x81e>
    2808:	b1 c0       	rjmp	.+354    	; 0x296c <main+0x938>
    280a:	63 33       	cpi	r22, 0x33	; 51
    280c:	31 f1       	breq	.+76     	; 0x285a <main+0x826>
    280e:	64 33       	cpi	r22, 0x34	; 52
    2810:	71 f1       	breq	.+92     	; 0x286e <main+0x83a>
    2812:	ac c0       	rjmp	.+344    	; 0x296c <main+0x938>
    2814:	10 92 13 01 	sts	0x0113, r1
    2818:	10 92 12 01 	sts	0x0112, r1
    281c:	10 92 11 01 	sts	0x0111, r1
    2820:	10 92 10 01 	sts	0x0110, r1
    2824:	10 92 0f 01 	sts	0x010F, r1
    2828:	10 92 0e 01 	sts	0x010E, r1
    282c:	46 c0       	rjmp	.+140    	; 0x28ba <main+0x886>
    282e:	90 91 0e 01 	lds	r25, 0x010E
    2832:	80 91 11 01 	lds	r24, 0x0111
    2836:	98 13       	cpse	r25, r24
    2838:	0c c0       	rjmp	.+24     	; 0x2852 <main+0x81e>
    283a:	90 91 0f 01 	lds	r25, 0x010F
    283e:	80 91 12 01 	lds	r24, 0x0112
    2842:	98 13       	cpse	r25, r24
    2844:	06 c0       	rjmp	.+12     	; 0x2852 <main+0x81e>
    2846:	90 91 10 01 	lds	r25, 0x0110
    284a:	80 91 13 01 	lds	r24, 0x0113
    284e:	98 17       	cp	r25, r24
    2850:	11 f0       	breq	.+4      	; 0x2856 <main+0x822>
    2852:	c5 da       	rcall	.-2678   	; 0x1dde <OutpReport>
    2854:	8b c0       	rjmp	.+278    	; 0x296c <main+0x938>
    2856:	e9 da       	rcall	.-2606   	; 0x1e2a <OutpNullReport>
    2858:	89 c0       	rjmp	.+274    	; 0x296c <main+0x938>
    285a:	83 81       	ldd	r24, Z+3	; 0x03
    285c:	80 93 10 01 	sts	0x0110, r24
    2860:	84 81       	ldd	r24, Z+4	; 0x04
    2862:	80 93 0f 01 	sts	0x010F, r24
    2866:	85 81       	ldd	r24, Z+5	; 0x05
    2868:	80 93 0e 01 	sts	0x010E, r24
    286c:	26 c0       	rjmp	.+76     	; 0x28ba <main+0x886>
    286e:	83 81       	ldd	r24, Z+3	; 0x03
    2870:	80 93 14 01 	sts	0x0114, r24
    2874:	44 81       	ldd	r20, Z+4	; 0x04
    2876:	40 93 15 01 	sts	0x0115, r20
    287a:	28 2f       	mov	r18, r24
    287c:	26 95       	lsr	r18
    287e:	26 95       	lsr	r18
    2880:	26 95       	lsr	r18
    2882:	20 93 16 01 	sts	0x0116, r18
    2886:	23 30       	cpi	r18, 0x03	; 3
    2888:	08 f0       	brcs	.+2      	; 0x288c <main+0x858>
    288a:	70 c0       	rjmp	.+224    	; 0x296c <main+0x938>
    288c:	87 70       	andi	r24, 0x07	; 7
    288e:	80 93 14 01 	sts	0x0114, r24
    2892:	30 e0       	ldi	r19, 0x00	; 0
    2894:	f9 01       	movw	r30, r18
    2896:	e2 5f       	subi	r30, 0xF2	; 242
    2898:	fe 4f       	sbci	r31, 0xFE	; 254
    289a:	94 01       	movw	r18, r8
    289c:	02 c0       	rjmp	.+4      	; 0x28a2 <main+0x86e>
    289e:	22 0f       	add	r18, r18
    28a0:	33 1f       	adc	r19, r19
    28a2:	8a 95       	dec	r24
    28a4:	e2 f7       	brpl	.-8      	; 0x289e <main+0x86a>
    28a6:	c9 01       	movw	r24, r18
    28a8:	32 2f       	mov	r19, r18
    28aa:	30 95       	com	r19
    28ac:	20 81       	ld	r18, Z
    28ae:	23 23       	and	r18, r19
    28b0:	20 83       	st	Z, r18
    28b2:	44 23       	and	r20, r20
    28b4:	11 f0       	breq	.+4      	; 0x28ba <main+0x886>
    28b6:	82 2b       	or	r24, r18
    28b8:	80 83       	st	Z, r24
    28ba:	db d9       	rcall	.-3146   	; 0x1c72 <Output>
    28bc:	57 c0       	rjmp	.+174    	; 0x296c <main+0x938>
    28be:	62 34       	cpi	r22, 0x42	; 66
    28c0:	51 f0       	breq	.+20     	; 0x28d6 <main+0x8a2>
    28c2:	63 34       	cpi	r22, 0x43	; 67
    28c4:	19 f1       	breq	.+70     	; 0x290c <main+0x8d8>
    28c6:	61 34       	cpi	r22, 0x41	; 65
    28c8:	09 f0       	breq	.+2      	; 0x28cc <main+0x898>
    28ca:	50 c0       	rjmp	.+160    	; 0x296c <main+0x938>
    28cc:	83 81       	ldd	r24, Z+3	; 0x03
    28ce:	84 30       	cpi	r24, 0x04	; 4
    28d0:	08 f0       	brcs	.+2      	; 0x28d4 <main+0x8a0>
    28d2:	4c c0       	rjmp	.+152    	; 0x296c <main+0x938>
    28d4:	17 c0       	rjmp	.+46     	; 0x2904 <main+0x8d0>
    28d6:	83 81       	ldd	r24, Z+3	; 0x03
    28d8:	84 30       	cpi	r24, 0x04	; 4
    28da:	08 f0       	brcs	.+2      	; 0x28de <main+0x8aa>
    28dc:	47 c0       	rjmp	.+142    	; 0x296c <main+0x938>
    28de:	28 2f       	mov	r18, r24
    28e0:	30 e0       	ldi	r19, 0x00	; 0
    28e2:	d9 01       	movw	r26, r18
    28e4:	aa 0f       	add	r26, r26
    28e6:	bb 1f       	adc	r27, r27
    28e8:	a2 5f       	subi	r26, 0xF2	; 242
    28ea:	be 4f       	sbci	r27, 0xFE	; 254
    28ec:	22 0f       	add	r18, r18
    28ee:	33 1f       	adc	r19, r19
    28f0:	f9 01       	movw	r30, r18
    28f2:	ea 5e       	subi	r30, 0xEA	; 234
    28f4:	fe 4f       	sbci	r31, 0xFE	; 254
    28f6:	4d 91       	ld	r20, X+
    28f8:	5c 91       	ld	r21, X
    28fa:	20 81       	ld	r18, Z
    28fc:	31 81       	ldd	r19, Z+1	; 0x01
    28fe:	42 17       	cp	r20, r18
    2900:	53 07       	cpc	r21, r19
    2902:	11 f0       	breq	.+4      	; 0x2908 <main+0x8d4>
    2904:	a2 da       	rcall	.-2748   	; 0x1e4a <PwmReport>
    2906:	32 c0       	rjmp	.+100    	; 0x296c <main+0x938>
    2908:	d2 da       	rcall	.-2652   	; 0x1eae <PwmNullReport>
    290a:	30 c0       	rjmp	.+96     	; 0x296c <main+0x938>
    290c:	83 81       	ldd	r24, Z+3	; 0x03
    290e:	84 30       	cpi	r24, 0x04	; 4
    2910:	d8 f4       	brcc	.+54     	; 0x2948 <main+0x914>
    2912:	84 81       	ldd	r24, Z+4	; 0x04
    2914:	90 e0       	ldi	r25, 0x00	; 0
    2916:	98 2f       	mov	r25, r24
    2918:	88 27       	eor	r24, r24
    291a:	25 81       	ldd	r18, Z+5	; 0x05
    291c:	82 2b       	or	r24, r18
    291e:	90 93 1f 01 	sts	0x011F, r25
    2922:	80 93 1e 01 	sts	0x011E, r24
    2926:	a3 81       	ldd	r26, Z+3	; 0x03
    2928:	aa 23       	and	r26, r26
    292a:	21 f0       	breq	.+8      	; 0x2934 <main+0x900>
    292c:	89 3e       	cpi	r24, 0xE9	; 233
    292e:	33 e0       	ldi	r19, 0x03	; 3
    2930:	93 07       	cpc	r25, r19
    2932:	e0 f4       	brcc	.+56     	; 0x296c <main+0x938>
    2934:	b0 e0       	ldi	r27, 0x00	; 0
    2936:	aa 0f       	add	r26, r26
    2938:	bb 1f       	adc	r27, r27
    293a:	a2 5f       	subi	r26, 0xF2	; 242
    293c:	be 4f       	sbci	r27, 0xFE	; 254
    293e:	8d 93       	st	X+, r24
    2940:	9c 93       	st	X, r25
    2942:	83 81       	ldd	r24, Z+3	; 0x03
    2944:	ad d9       	rcall	.-3238   	; 0x1ca0 <PwmCtrl>
    2946:	12 c0       	rjmp	.+36     	; 0x296c <main+0x938>
    2948:	84 30       	cpi	r24, 0x04	; 4
    294a:	81 f4       	brne	.+32     	; 0x296c <main+0x938>
    294c:	84 81       	ldd	r24, Z+4	; 0x04
    294e:	81 11       	cpse	r24, r1
    2950:	0d c0       	rjmp	.+26     	; 0x296c <main+0x938>
    2952:	85 81       	ldd	r24, Z+5	; 0x05
    2954:	80 7f       	andi	r24, 0xF0	; 240
    2956:	51 f4       	brne	.+20     	; 0x296c <main+0x938>
    2958:	89 b3       	in	r24, 0x19	; 25
    295a:	80 7f       	andi	r24, 0xF0	; 240
    295c:	8b bb       	out	0x1b, r24	; 27
    295e:	85 81       	ldd	r24, Z+5	; 0x05
    2960:	82 95       	swap	r24
    2962:	80 7f       	andi	r24, 0xF0	; 240
    2964:	b6 da       	rcall	.-2708   	; 0x1ed2 <Turnup>
    2966:	9b b3       	in	r25, 0x1b	; 27
    2968:	89 2b       	or	r24, r25
    296a:	8b bb       	out	0x1b, r24	; 27
    296c:	81 2f       	mov	r24, r17
    296e:	90 e0       	ldi	r25, 0x00	; 0
    2970:	ac 01       	movw	r20, r24
    2972:	40 0f       	add	r20, r16
    2974:	51 1d       	adc	r21, r1
    2976:	8a 01       	movw	r16, r20
    2978:	ba 01       	movw	r22, r20
    297a:	6f 5f       	subi	r22, 0xFF	; 255
    297c:	7f 4f       	sbci	r23, 0xFF	; 255
    297e:	80 91 77 0b 	lds	r24, 0x0B77
    2982:	90 91 78 0b 	lds	r25, 0x0B78
    2986:	68 17       	cp	r22, r24
    2988:	79 07       	cpc	r23, r25
    298a:	0c f0       	brlt	.+2      	; 0x298e <main+0x95a>
    298c:	fd ce       	rjmp	.-518    	; 0x2788 <main+0x754>
    298e:	89 e7       	ldi	r24, 0x79	; 121
    2990:	9b e0       	ldi	r25, 0x0B	; 11
    2992:	0e 94 3c 0c 	call	0x1878	; 0x1878 <Shift>
    2996:	00 95       	com	r16
    2998:	10 95       	com	r17
    299a:	80 91 77 0b 	lds	r24, 0x0B77
    299e:	90 91 78 0b 	lds	r25, 0x0B78
    29a2:	08 0f       	add	r16, r24
    29a4:	19 1f       	adc	r17, r25
    29a6:	10 93 78 0b 	sts	0x0B78, r17
    29aa:	00 93 77 0b 	sts	0x0B77, r16
    29ae:	81 cc       	rjmp	.-1790   	; 0x22b2 <main+0x27e>
    29b0:	0a 9d       	mul	r16, r10
    29b2:	f0 01       	movw	r30, r0
    29b4:	0b 9d       	mul	r16, r11
    29b6:	f0 0d       	add	r31, r0
    29b8:	1a 9d       	mul	r17, r10
    29ba:	f0 0d       	add	r31, r0
    29bc:	11 24       	eor	r1, r1
    29be:	e1 5f       	subi	r30, 0xF1	; 241
    29c0:	fe 4f       	sbci	r31, 0xFE	; 254
    29c2:	80 81       	ld	r24, Z
    29c4:	86 ff       	sbrs	r24, 6
    29c6:	0a c0       	rjmp	.+20     	; 0x29dc <main+0x9a8>
    29c8:	8f 70       	andi	r24, 0x0F	; 15
    29ca:	0e 94 e6 06 	call	0xdcc	; 0xdcc <GetSendLeng>
    29ce:	f7 01       	movw	r30, r14
    29d0:	e2 58       	subi	r30, 0x82	; 130
    29d2:	f1 09       	sbc	r31, r1
    29d4:	80 83       	st	Z, r24
    29d6:	82 2d       	mov	r24, r2
    29d8:	0e 94 85 0c 	call	0x190a	; 0x190a <PreSend>
    29dc:	0a 9d       	mul	r16, r10
    29de:	f0 01       	movw	r30, r0
    29e0:	0b 9d       	mul	r16, r11
    29e2:	f0 0d       	add	r31, r0
    29e4:	1a 9d       	mul	r17, r10
    29e6:	f0 0d       	add	r31, r0
    29e8:	11 24       	eor	r1, r1
    29ea:	e1 5f       	subi	r30, 0xF1	; 241
    29ec:	fe 4f       	sbci	r31, 0xFE	; 254
    29ee:	80 81       	ld	r24, Z
    29f0:	87 ff       	sbrs	r24, 7
    29f2:	8f ce       	rjmp	.-738    	; 0x2712 <main+0x6de>
    29f4:	82 2d       	mov	r24, r2
    29f6:	0e 94 cc 0c 	call	0x1998	; 0x1998 <RecvReport>
    29fa:	8b ce       	rjmp	.-746    	; 0x2712 <main+0x6de>
    29fc:	31 2e       	mov	r3, r17
    29fe:	46 cc       	rjmp	.-1908   	; 0x228c <main+0x258>

00002a00 <__vector_16>:
    2a00:	1f 92       	push	r1
    2a02:	0f 92       	push	r0
    2a04:	0f b6       	in	r0, 0x3f	; 63
    2a06:	0f 92       	push	r0
    2a08:	11 24       	eor	r1, r1
    2a0a:	0b b6       	in	r0, 0x3b	; 59
    2a0c:	0f 92       	push	r0
    2a0e:	2f 93       	push	r18
    2a10:	3f 93       	push	r19
    2a12:	4f 93       	push	r20
    2a14:	5f 93       	push	r21
    2a16:	6f 93       	push	r22
    2a18:	7f 93       	push	r23
    2a1a:	8f 93       	push	r24
    2a1c:	9f 93       	push	r25
    2a1e:	af 93       	push	r26
    2a20:	bf 93       	push	r27
    2a22:	cf 93       	push	r28
    2a24:	df 93       	push	r29
    2a26:	ef 93       	push	r30
    2a28:	ff 93       	push	r31
    2a2a:	80 e7       	ldi	r24, 0x70	; 112
    2a2c:	82 bf       	out	0x32, r24	; 50
    2a2e:	40 91 81 0d 	lds	r20, 0x0D81
    2a32:	40 fd       	sbrc	r20, 0
    2a34:	2e c0       	rjmp	.+92     	; 0x2a92 <__vector_16+0x92>
    2a36:	90 91 63 00 	lds	r25, 0x0063
    2a3a:	80 b3       	in	r24, 0x10	; 16
    2a3c:	30 b1       	in	r19, 0x00	; 0
    2a3e:	80 95       	com	r24
    2a40:	80 77       	andi	r24, 0x70	; 112
    2a42:	3f 70       	andi	r19, 0x0F	; 15
    2a44:	28 2f       	mov	r18, r24
    2a46:	23 2b       	or	r18, r19
    2a48:	89 2f       	mov	r24, r25
    2a4a:	90 e0       	ldi	r25, 0x00	; 0
    2a4c:	80 95       	com	r24
    2a4e:	90 95       	com	r25
    2a50:	34 e0       	ldi	r19, 0x04	; 4
    2a52:	88 0f       	add	r24, r24
    2a54:	99 1f       	adc	r25, r25
    2a56:	3a 95       	dec	r19
    2a58:	e1 f7       	brne	.-8      	; 0x2a52 <__vector_16+0x52>
    2a5a:	80 78       	andi	r24, 0x80	; 128
    2a5c:	82 2b       	or	r24, r18
    2a5e:	80 93 0e 01 	sts	0x010E, r24
    2a62:	90 91 11 01 	lds	r25, 0x0111
    2a66:	89 13       	cpse	r24, r25
    2a68:	0e c0       	rjmp	.+28     	; 0x2a86 <__vector_16+0x86>
    2a6a:	90 91 1a 01 	lds	r25, 0x011A
    2a6e:	91 50       	subi	r25, 0x01	; 1
    2a70:	90 93 1a 01 	sts	0x011A, r25
    2a74:	91 11       	cpse	r25, r1
    2a76:	77 c0       	rjmp	.+238    	; 0x2b66 <__vector_16+0x166>
    2a78:	82 95       	swap	r24
    2a7a:	80 93 80 0d 	sts	0x0D80, r24
    2a7e:	41 60       	ori	r20, 0x01	; 1
    2a80:	40 93 81 0d 	sts	0x0D81, r20
    2a84:	70 c0       	rjmp	.+224    	; 0x2b66 <__vector_16+0x166>
    2a86:	80 93 11 01 	sts	0x0111, r24
    2a8a:	84 e1       	ldi	r24, 0x14	; 20
    2a8c:	80 93 1a 01 	sts	0x011A, r24
    2a90:	6a c0       	rjmp	.+212    	; 0x2b66 <__vector_16+0x166>
    2a92:	80 91 76 0b 	lds	r24, 0x0B76
    2a96:	88 23       	and	r24, r24
    2a98:	19 f0       	breq	.+6      	; 0x2aa0 <__vector_16+0xa0>
    2a9a:	81 50       	subi	r24, 0x01	; 1
    2a9c:	80 93 76 0b 	sts	0x0B76, r24
    2aa0:	80 91 82 0d 	lds	r24, 0x0D82
    2aa4:	88 23       	and	r24, r24
    2aa6:	49 f0       	breq	.+18     	; 0x2aba <__vector_16+0xba>
    2aa8:	81 50       	subi	r24, 0x01	; 1
    2aaa:	80 93 82 0d 	sts	0x0D82, r24
    2aae:	81 11       	cpse	r24, r1
    2ab0:	04 c0       	rjmp	.+8      	; 0x2aba <__vector_16+0xba>
    2ab2:	10 92 84 0d 	sts	0x0D84, r1
    2ab6:	10 92 83 0d 	sts	0x0D83, r1
    2aba:	80 91 71 0b 	lds	r24, 0x0B71
    2abe:	90 91 72 0b 	lds	r25, 0x0B72
    2ac2:	00 97       	sbiw	r24, 0x00	; 0
    2ac4:	29 f0       	breq	.+10     	; 0x2ad0 <__vector_16+0xd0>
    2ac6:	01 97       	sbiw	r24, 0x01	; 1
    2ac8:	90 93 72 0b 	sts	0x0B72, r25
    2acc:	80 93 71 0b 	sts	0x0B71, r24
    2ad0:	80 91 80 0d 	lds	r24, 0x0D80
    2ad4:	82 95       	swap	r24
    2ad6:	8f 70       	andi	r24, 0x0F	; 15
    2ad8:	81 30       	cpi	r24, 0x01	; 1
    2ada:	19 f4       	brne	.+6      	; 0x2ae2 <__vector_16+0xe2>
    2adc:	0e 94 3e 06 	call	0xc7c	; 0xc7c <ScanScc>
    2ae0:	42 c0       	rjmp	.+132    	; 0x2b66 <__vector_16+0x166>
    2ae2:	82 30       	cpi	r24, 0x02	; 2
    2ae4:	09 f0       	breq	.+2      	; 0x2ae8 <__vector_16+0xe8>
    2ae6:	3f c0       	rjmp	.+126    	; 0x2b66 <__vector_16+0x166>
    2ae8:	89 b3       	in	r24, 0x19	; 25
    2aea:	80 95       	com	r24
    2aec:	f2 d9       	rcall	.-3100   	; 0x1ed2 <Turnup>
    2aee:	80 93 0e 01 	sts	0x010E, r24
    2af2:	83 b3       	in	r24, 0x13	; 19
    2af4:	80 95       	com	r24
    2af6:	ed d9       	rcall	.-3110   	; 0x1ed2 <Turnup>
    2af8:	80 93 0f 01 	sts	0x010F, r24
    2afc:	21 b1       	in	r18, 0x01	; 1
    2afe:	86 b3       	in	r24, 0x16	; 22
    2b00:	30 e0       	ldi	r19, 0x00	; 0
    2b02:	20 95       	com	r18
    2b04:	30 95       	com	r19
    2b06:	20 7f       	andi	r18, 0xF0	; 240
    2b08:	33 27       	eor	r19, r19
    2b0a:	94 e0       	ldi	r25, 0x04	; 4
    2b0c:	35 95       	asr	r19
    2b0e:	27 95       	ror	r18
    2b10:	9a 95       	dec	r25
    2b12:	e1 f7       	brne	.-8      	; 0x2b0c <__vector_16+0x10c>
    2b14:	80 95       	com	r24
    2b16:	80 7f       	andi	r24, 0xF0	; 240
    2b18:	82 2b       	or	r24, r18
    2b1a:	db d9       	rcall	.-3146   	; 0x1ed2 <Turnup>
    2b1c:	80 93 10 01 	sts	0x0110, r24
    2b20:	a1 e1       	ldi	r26, 0x11	; 17
    2b22:	b1 e0       	ldi	r27, 0x01	; 1
    2b24:	ea e1       	ldi	r30, 0x1A	; 26
    2b26:	f1 e0       	ldi	r31, 0x01	; 1
    2b28:	6e e0       	ldi	r22, 0x0E	; 14
    2b2a:	71 e0       	ldi	r23, 0x01	; 1
    2b2c:	24 e1       	ldi	r18, 0x14	; 20
    2b2e:	93 e0       	ldi	r25, 0x03	; 3
    2b30:	96 0f       	add	r25, r22
    2b32:	eb 01       	movw	r28, r22
    2b34:	89 91       	ld	r24, Y+
    2b36:	be 01       	movw	r22, r28
    2b38:	3c 91       	ld	r19, X
    2b3a:	83 17       	cp	r24, r19
    2b3c:	19 f0       	breq	.+6      	; 0x2b44 <__vector_16+0x144>
    2b3e:	8c 93       	st	X, r24
    2b40:	20 83       	st	Z, r18
    2b42:	0d c0       	rjmp	.+26     	; 0x2b5e <__vector_16+0x15e>
    2b44:	80 81       	ld	r24, Z
    2b46:	88 23       	and	r24, r24
    2b48:	51 f0       	breq	.+20     	; 0x2b5e <__vector_16+0x15e>
    2b4a:	81 50       	subi	r24, 0x01	; 1
    2b4c:	80 83       	st	Z, r24
    2b4e:	81 11       	cpse	r24, r1
    2b50:	06 c0       	rjmp	.+12     	; 0x2b5e <__vector_16+0x15e>
    2b52:	8c 91       	ld	r24, X
    2b54:	af 01       	movw	r20, r30
    2b56:	46 50       	subi	r20, 0x06	; 6
    2b58:	51 09       	sbc	r21, r1
    2b5a:	ea 01       	movw	r28, r20
    2b5c:	88 83       	st	Y, r24
    2b5e:	11 96       	adiw	r26, 0x01	; 1
    2b60:	31 96       	adiw	r30, 0x01	; 1
    2b62:	96 13       	cpse	r25, r22
    2b64:	e6 cf       	rjmp	.-52     	; 0x2b32 <__vector_16+0x132>
    2b66:	80 91 7e 0d 	lds	r24, 0x0D7E
    2b6a:	90 91 7f 0d 	lds	r25, 0x0D7F
    2b6e:	01 96       	adiw	r24, 0x01	; 1
    2b70:	88 3e       	cpi	r24, 0xE8	; 232
    2b72:	d3 e0       	ldi	r29, 0x03	; 3
    2b74:	9d 07       	cpc	r25, r29
    2b76:	28 f4       	brcc	.+10     	; 0x2b82 <__vector_16+0x182>
    2b78:	90 93 7f 0d 	sts	0x0D7F, r25
    2b7c:	80 93 7e 0d 	sts	0x0D7E, r24
    2b80:	1d c0       	rjmp	.+58     	; 0x2bbc <__vector_16+0x1bc>
    2b82:	10 92 7f 0d 	sts	0x0D7F, r1
    2b86:	10 92 7e 0d 	sts	0x0D7E, r1
    2b8a:	80 91 7d 0d 	lds	r24, 0x0D7D
    2b8e:	8f 5f       	subi	r24, 0xFF	; 255
    2b90:	8c 33       	cpi	r24, 0x3C	; 60
    2b92:	18 f4       	brcc	.+6      	; 0x2b9a <__vector_16+0x19a>
    2b94:	80 93 7d 0d 	sts	0x0D7D, r24
    2b98:	11 c0       	rjmp	.+34     	; 0x2bbc <__vector_16+0x1bc>
    2b9a:	10 92 7d 0d 	sts	0x0D7D, r1
    2b9e:	80 91 7c 0d 	lds	r24, 0x0D7C
    2ba2:	8f 5f       	subi	r24, 0xFF	; 255
    2ba4:	8c 33       	cpi	r24, 0x3C	; 60
    2ba6:	18 f4       	brcc	.+6      	; 0x2bae <__vector_16+0x1ae>
    2ba8:	80 93 7c 0d 	sts	0x0D7C, r24
    2bac:	07 c0       	rjmp	.+14     	; 0x2bbc <__vector_16+0x1bc>
    2bae:	10 92 7c 0d 	sts	0x0D7C, r1
    2bb2:	80 91 7b 0d 	lds	r24, 0x0D7B
    2bb6:	8f 5f       	subi	r24, 0xFF	; 255
    2bb8:	80 93 7b 0d 	sts	0x0D7B, r24
    2bbc:	80 91 5f 09 	lds	r24, 0x095F
    2bc0:	81 50       	subi	r24, 0x01	; 1
    2bc2:	19 f0       	breq	.+6      	; 0x2bca <__vector_16+0x1ca>
    2bc4:	80 93 5f 09 	sts	0x095F, r24
    2bc8:	09 c0       	rjmp	.+18     	; 0x2bdc <__vector_16+0x1dc>
    2bca:	84 e6       	ldi	r24, 0x64	; 100
    2bcc:	80 93 5f 09 	sts	0x095F, r24
    2bd0:	90 91 65 00 	lds	r25, 0x0065
    2bd4:	80 e1       	ldi	r24, 0x10	; 16
    2bd6:	89 27       	eor	r24, r25
    2bd8:	80 93 65 00 	sts	0x0065, r24
    2bdc:	ff 91       	pop	r31
    2bde:	ef 91       	pop	r30
    2be0:	df 91       	pop	r29
    2be2:	cf 91       	pop	r28
    2be4:	bf 91       	pop	r27
    2be6:	af 91       	pop	r26
    2be8:	9f 91       	pop	r25
    2bea:	8f 91       	pop	r24
    2bec:	7f 91       	pop	r23
    2bee:	6f 91       	pop	r22
    2bf0:	5f 91       	pop	r21
    2bf2:	4f 91       	pop	r20
    2bf4:	3f 91       	pop	r19
    2bf6:	2f 91       	pop	r18
    2bf8:	0f 90       	pop	r0
    2bfa:	0b be       	out	0x3b, r0	; 59
    2bfc:	0f 90       	pop	r0
    2bfe:	0f be       	out	0x3f, r0	; 63
    2c00:	0f 90       	pop	r0
    2c02:	1f 90       	pop	r1
    2c04:	18 95       	reti

00002c06 <__vector_18>:
    2c06:	1f 92       	push	r1
    2c08:	0f 92       	push	r0
    2c0a:	0f b6       	in	r0, 0x3f	; 63
    2c0c:	0f 92       	push	r0
    2c0e:	11 24       	eor	r1, r1
    2c10:	0b b6       	in	r0, 0x3b	; 59
    2c12:	0f 92       	push	r0
    2c14:	2f 93       	push	r18
    2c16:	4f 93       	push	r20
    2c18:	5f 93       	push	r21
    2c1a:	8f 93       	push	r24
    2c1c:	9f 93       	push	r25
    2c1e:	ef 93       	push	r30
    2c20:	ff 93       	push	r31
    2c22:	2c b1       	in	r18, 0x0c	; 12
    2c24:	80 91 83 0d 	lds	r24, 0x0D83
    2c28:	90 91 84 0d 	lds	r25, 0x0D84
    2c2c:	00 97       	sbiw	r24, 0x00	; 0
    2c2e:	59 f4       	brne	.+22     	; 0x2c46 <__vector_18+0x40>
    2c30:	2e 37       	cpi	r18, 0x7E	; 126
    2c32:	31 f5       	brne	.+76     	; 0x2c80 <__vector_18+0x7a>
    2c34:	81 e0       	ldi	r24, 0x01	; 1
    2c36:	90 e0       	ldi	r25, 0x00	; 0
    2c38:	90 93 84 0d 	sts	0x0D84, r25
    2c3c:	80 93 83 0d 	sts	0x0D83, r24
    2c40:	20 93 85 0d 	sts	0x0D85, r18
    2c44:	13 c0       	rjmp	.+38     	; 0x2c6c <__vector_18+0x66>
    2c46:	8f 3f       	cpi	r24, 0xFF	; 255
    2c48:	91 05       	cpc	r25, r1
    2c4a:	09 f0       	breq	.+2      	; 0x2c4e <__vector_18+0x48>
    2c4c:	9c f4       	brge	.+38     	; 0x2c74 <__vector_18+0x6e>
    2c4e:	ac 01       	movw	r20, r24
    2c50:	4f 5f       	subi	r20, 0xFF	; 255
    2c52:	5f 4f       	sbci	r21, 0xFF	; 255
    2c54:	50 93 84 0d 	sts	0x0D84, r21
    2c58:	40 93 83 0d 	sts	0x0D83, r20
    2c5c:	fc 01       	movw	r30, r24
    2c5e:	ee 57       	subi	r30, 0x7E	; 126
    2c60:	f2 4f       	sbci	r31, 0xF2	; 242
    2c62:	23 83       	std	Z+3, r18	; 0x03
    2c64:	2d 30       	cpi	r18, 0x0D	; 13
    2c66:	51 f0       	breq	.+20     	; 0x2c7c <__vector_18+0x76>
    2c68:	2a 30       	cpi	r18, 0x0A	; 10
    2c6a:	41 f0       	breq	.+16     	; 0x2c7c <__vector_18+0x76>
    2c6c:	82 e0       	ldi	r24, 0x02	; 2
    2c6e:	80 93 82 0d 	sts	0x0D82, r24
    2c72:	06 c0       	rjmp	.+12     	; 0x2c80 <__vector_18+0x7a>
    2c74:	10 92 84 0d 	sts	0x0D84, r1
    2c78:	10 92 83 0d 	sts	0x0D83, r1
    2c7c:	10 92 82 0d 	sts	0x0D82, r1
    2c80:	ff 91       	pop	r31
    2c82:	ef 91       	pop	r30
    2c84:	9f 91       	pop	r25
    2c86:	8f 91       	pop	r24
    2c88:	5f 91       	pop	r21
    2c8a:	4f 91       	pop	r20
    2c8c:	2f 91       	pop	r18
    2c8e:	0f 90       	pop	r0
    2c90:	0b be       	out	0x3b, r0	; 59
    2c92:	0f 90       	pop	r0
    2c94:	0f be       	out	0x3f, r0	; 63
    2c96:	0f 90       	pop	r0
    2c98:	1f 90       	pop	r1
    2c9a:	18 95       	reti

00002c9c <__vector_30>:
    2c9c:	1f 92       	push	r1
    2c9e:	0f 92       	push	r0
    2ca0:	0f b6       	in	r0, 0x3f	; 63
    2ca2:	0f 92       	push	r0
    2ca4:	11 24       	eor	r1, r1
    2ca6:	0b b6       	in	r0, 0x3b	; 59
    2ca8:	0f 92       	push	r0
    2caa:	2f 93       	push	r18
    2cac:	4f 93       	push	r20
    2cae:	5f 93       	push	r21
    2cb0:	8f 93       	push	r24
    2cb2:	9f 93       	push	r25
    2cb4:	ef 93       	push	r30
    2cb6:	ff 93       	push	r31
    2cb8:	20 91 9c 00 	lds	r18, 0x009C
    2cbc:	80 91 77 0b 	lds	r24, 0x0B77
    2cc0:	90 91 78 0b 	lds	r25, 0x0B78
    2cc4:	8f 3f       	cpi	r24, 0xFF	; 255
    2cc6:	91 05       	cpc	r25, r1
    2cc8:	09 f0       	breq	.+2      	; 0x2ccc <__vector_30+0x30>
    2cca:	74 f4       	brge	.+28     	; 0x2ce8 <__vector_30+0x4c>
    2ccc:	ac 01       	movw	r20, r24
    2cce:	4f 5f       	subi	r20, 0xFF	; 255
    2cd0:	5f 4f       	sbci	r21, 0xFF	; 255
    2cd2:	50 93 78 0b 	sts	0x0B78, r21
    2cd6:	40 93 77 0b 	sts	0x0B77, r20
    2cda:	fc 01       	movw	r30, r24
    2cdc:	ed 58       	subi	r30, 0x8D	; 141
    2cde:	f4 4f       	sbci	r31, 0xF4	; 244
    2ce0:	26 83       	std	Z+6, r18	; 0x06
    2ce2:	83 e0       	ldi	r24, 0x03	; 3
    2ce4:	80 93 76 0b 	sts	0x0B76, r24
    2ce8:	ff 91       	pop	r31
    2cea:	ef 91       	pop	r30
    2cec:	9f 91       	pop	r25
    2cee:	8f 91       	pop	r24
    2cf0:	5f 91       	pop	r21
    2cf2:	4f 91       	pop	r20
    2cf4:	2f 91       	pop	r18
    2cf6:	0f 90       	pop	r0
    2cf8:	0b be       	out	0x3b, r0	; 59
    2cfa:	0f 90       	pop	r0
    2cfc:	0f be       	out	0x3f, r0	; 63
    2cfe:	0f 90       	pop	r0
    2d00:	1f 90       	pop	r1
    2d02:	18 95       	reti

00002d04 <__vector_1>:
    2d04:	1f 92       	push	r1
    2d06:	0f 92       	push	r0
    2d08:	0f b6       	in	r0, 0x3f	; 63
    2d0a:	0f 92       	push	r0
    2d0c:	11 24       	eor	r1, r1
    2d0e:	0b b6       	in	r0, 0x3b	; 59
    2d10:	0f 92       	push	r0
    2d12:	2f 93       	push	r18
    2d14:	3f 93       	push	r19
    2d16:	4f 93       	push	r20
    2d18:	5f 93       	push	r21
    2d1a:	6f 93       	push	r22
    2d1c:	7f 93       	push	r23
    2d1e:	8f 93       	push	r24
    2d20:	9f 93       	push	r25
    2d22:	af 93       	push	r26
    2d24:	bf 93       	push	r27
    2d26:	ef 93       	push	r30
    2d28:	ff 93       	push	r31
    2d2a:	0e 94 31 0b 	call	0x1662	; 0x1662 <SockISR>
    2d2e:	ff 91       	pop	r31
    2d30:	ef 91       	pop	r30
    2d32:	bf 91       	pop	r27
    2d34:	af 91       	pop	r26
    2d36:	9f 91       	pop	r25
    2d38:	8f 91       	pop	r24
    2d3a:	7f 91       	pop	r23
    2d3c:	6f 91       	pop	r22
    2d3e:	5f 91       	pop	r21
    2d40:	4f 91       	pop	r20
    2d42:	3f 91       	pop	r19
    2d44:	2f 91       	pop	r18
    2d46:	0f 90       	pop	r0
    2d48:	0b be       	out	0x3b, r0	; 59
    2d4a:	0f 90       	pop	r0
    2d4c:	0f be       	out	0x3f, r0	; 63
    2d4e:	0f 90       	pop	r0
    2d50:	1f 90       	pop	r1
    2d52:	18 95       	reti

00002d54 <__vector_5>:
    2d54:	1f 92       	push	r1
    2d56:	0f 92       	push	r0
    2d58:	0f b6       	in	r0, 0x3f	; 63
    2d5a:	0f 92       	push	r0
    2d5c:	11 24       	eor	r1, r1
    2d5e:	0b b6       	in	r0, 0x3b	; 59
    2d60:	0f 92       	push	r0
    2d62:	2f 93       	push	r18
    2d64:	3f 93       	push	r19
    2d66:	4f 93       	push	r20
    2d68:	5f 93       	push	r21
    2d6a:	6f 93       	push	r22
    2d6c:	7f 93       	push	r23
    2d6e:	8f 93       	push	r24
    2d70:	9f 93       	push	r25
    2d72:	af 93       	push	r26
    2d74:	bf 93       	push	r27
    2d76:	ef 93       	push	r30
    2d78:	ff 93       	push	r31
    2d7a:	80 e0       	ldi	r24, 0x00	; 0
    2d7c:	0e 94 f6 06 	call	0xdec	; 0xdec <SccISR>
    2d80:	ff 91       	pop	r31
    2d82:	ef 91       	pop	r30
    2d84:	bf 91       	pop	r27
    2d86:	af 91       	pop	r26
    2d88:	9f 91       	pop	r25
    2d8a:	8f 91       	pop	r24
    2d8c:	7f 91       	pop	r23
    2d8e:	6f 91       	pop	r22
    2d90:	5f 91       	pop	r21
    2d92:	4f 91       	pop	r20
    2d94:	3f 91       	pop	r19
    2d96:	2f 91       	pop	r18
    2d98:	0f 90       	pop	r0
    2d9a:	0b be       	out	0x3b, r0	; 59
    2d9c:	0f 90       	pop	r0
    2d9e:	0f be       	out	0x3f, r0	; 63
    2da0:	0f 90       	pop	r0
    2da2:	1f 90       	pop	r1
    2da4:	18 95       	reti

00002da6 <__vector_6>:
    2da6:	1f 92       	push	r1
    2da8:	0f 92       	push	r0
    2daa:	0f b6       	in	r0, 0x3f	; 63
    2dac:	0f 92       	push	r0
    2dae:	11 24       	eor	r1, r1
    2db0:	0b b6       	in	r0, 0x3b	; 59
    2db2:	0f 92       	push	r0
    2db4:	2f 93       	push	r18
    2db6:	3f 93       	push	r19
    2db8:	4f 93       	push	r20
    2dba:	5f 93       	push	r21
    2dbc:	6f 93       	push	r22
    2dbe:	7f 93       	push	r23
    2dc0:	8f 93       	push	r24
    2dc2:	9f 93       	push	r25
    2dc4:	af 93       	push	r26
    2dc6:	bf 93       	push	r27
    2dc8:	ef 93       	push	r30
    2dca:	ff 93       	push	r31
    2dcc:	81 e0       	ldi	r24, 0x01	; 1
    2dce:	0e 94 f6 06 	call	0xdec	; 0xdec <SccISR>
    2dd2:	ff 91       	pop	r31
    2dd4:	ef 91       	pop	r30
    2dd6:	bf 91       	pop	r27
    2dd8:	af 91       	pop	r26
    2dda:	9f 91       	pop	r25
    2ddc:	8f 91       	pop	r24
    2dde:	7f 91       	pop	r23
    2de0:	6f 91       	pop	r22
    2de2:	5f 91       	pop	r21
    2de4:	4f 91       	pop	r20
    2de6:	3f 91       	pop	r19
    2de8:	2f 91       	pop	r18
    2dea:	0f 90       	pop	r0
    2dec:	0b be       	out	0x3b, r0	; 59
    2dee:	0f 90       	pop	r0
    2df0:	0f be       	out	0x3f, r0	; 63
    2df2:	0f 90       	pop	r0
    2df4:	1f 90       	pop	r1
    2df6:	18 95       	reti

00002df8 <__vector_7>:
    2df8:	1f 92       	push	r1
    2dfa:	0f 92       	push	r0
    2dfc:	0f b6       	in	r0, 0x3f	; 63
    2dfe:	0f 92       	push	r0
    2e00:	11 24       	eor	r1, r1
    2e02:	0b b6       	in	r0, 0x3b	; 59
    2e04:	0f 92       	push	r0
    2e06:	2f 93       	push	r18
    2e08:	3f 93       	push	r19
    2e0a:	4f 93       	push	r20
    2e0c:	5f 93       	push	r21
    2e0e:	6f 93       	push	r22
    2e10:	7f 93       	push	r23
    2e12:	8f 93       	push	r24
    2e14:	9f 93       	push	r25
    2e16:	af 93       	push	r26
    2e18:	bf 93       	push	r27
    2e1a:	ef 93       	push	r30
    2e1c:	ff 93       	push	r31
    2e1e:	82 e0       	ldi	r24, 0x02	; 2
    2e20:	0e 94 f6 06 	call	0xdec	; 0xdec <SccISR>
    2e24:	ff 91       	pop	r31
    2e26:	ef 91       	pop	r30
    2e28:	bf 91       	pop	r27
    2e2a:	af 91       	pop	r26
    2e2c:	9f 91       	pop	r25
    2e2e:	8f 91       	pop	r24
    2e30:	7f 91       	pop	r23
    2e32:	6f 91       	pop	r22
    2e34:	5f 91       	pop	r21
    2e36:	4f 91       	pop	r20
    2e38:	3f 91       	pop	r19
    2e3a:	2f 91       	pop	r18
    2e3c:	0f 90       	pop	r0
    2e3e:	0b be       	out	0x3b, r0	; 59
    2e40:	0f 90       	pop	r0
    2e42:	0f be       	out	0x3f, r0	; 63
    2e44:	0f 90       	pop	r0
    2e46:	1f 90       	pop	r1
    2e48:	18 95       	reti

00002e4a <__vector_8>:
    2e4a:	1f 92       	push	r1
    2e4c:	0f 92       	push	r0
    2e4e:	0f b6       	in	r0, 0x3f	; sreg
    2e50:	0f 92       	push	r0
    2e52:	11 24       	eor	r1, r1
    2e54:	0b b6       	in	r0, 0x3b	; rampz
    2e56:	0f 92       	push	r0
    2e58:	2f 93       	push	r18
    2e5a:	3f 93       	push	r19
    2e5c:	4f 93       	push	r20
    2e5e:	5f 93       	push	r21
    2e60:	6f 93       	push	r22
    2e62:	7f 93       	push	r23
    2e64:	8f 93       	push	r24
    2e66:	9f 93       	push	r25
    2e68:	af 93       	push	r26
    2e6a:	bf 93       	push	r27
    2e6c:	ef 93       	push	r30
    2e6e:	ff 93       	push	r31
    2e70:	83 e0       	ldi	r24, 0x03	; 3
    2e72:	0e 94 f6 06 	call	0xdec	; 0xdec <SccISR>
    2e76:	ff 91       	pop	r31
    2e78:	ef 91       	pop	r30
    2e7a:	bf 91       	pop	r27
    2e7c:	af 91       	pop	r26
    2e7e:	9f 91       	pop	r25
    2e80:	8f 91       	pop	r24
    2e82:	7f 91       	pop	r23
    2e84:	6f 91       	pop	r22
    2e86:	5f 91       	pop	r21
    2e88:	4f 91       	pop	r20
    2e8a:	3f 91       	pop	r19
    2e8c:	2f 91       	pop	r18
    2e8e:	0f 90       	pop	r0
    2e90:	0b be       	out	0x3b, r0	; 59
    2e92:	0f 90       	pop	r0
    2e94:	0f be       	out	0x3f, r0	; 63
    2e96:	0f 90       	pop	r0
    2e98:	1f 90       	pop	r1
    2e9a:	18 95       	reti

00002e9c <__udivmodsi4>:
    2e9c:	a1 e2       	ldi	r26, 0x21	; 33
    2e9e:	1a 2e       	mov	r1, r26
    2ea0:	aa 1b       	sub	r26, r26
    2ea2:	bb 1b       	sub	r27, r27
    2ea4:	fd 01       	movw	r30, r26
    2ea6:	0d c0       	rjmp	.+26     	; 0x2ec2 <__udivmodsi4_ep>

00002ea8 <__udivmodsi4_loop>:
    2ea8:	aa 1f       	adc	r26, r26
    2eaa:	bb 1f       	adc	r27, r27
    2eac:	ee 1f       	adc	r30, r30
    2eae:	ff 1f       	adc	r31, r31
    2eb0:	a2 17       	cp	r26, r18
    2eb2:	b3 07       	cpc	r27, r19
    2eb4:	e4 07       	cpc	r30, r20
    2eb6:	f5 07       	cpc	r31, r21
    2eb8:	20 f0       	brcs	.+8      	; 0x2ec2 <__udivmodsi4_ep>
    2eba:	a2 1b       	sub	r26, r18
    2ebc:	b3 0b       	sbc	r27, r19
    2ebe:	e4 0b       	sbc	r30, r20
    2ec0:	f5 0b       	sbc	r31, r21

00002ec2 <__udivmodsi4_ep>:
    2ec2:	66 1f       	adc	r22, r22
    2ec4:	77 1f       	adc	r23, r23
    2ec6:	88 1f       	adc	r24, r24
    2ec8:	99 1f       	adc	r25, r25
    2eca:	1a 94       	dec	r1
    2ecc:	69 f7       	brne	.-38     	; 0x2ea8 <__udivmodsi4_loop>
    2ece:	60 95       	com	r22
    2ed0:	70 95       	com	r23
    2ed2:	80 95       	com	r24
    2ed4:	90 95       	com	r25
    2ed6:	9b 01       	movw	r18, r22
    2ed8:	ac 01       	movw	r20, r24
    2eda:	bd 01       	movw	r22, r26
    2edc:	cf 01       	movw	r24, r30
    2ede:	08 95       	ret

00002ee0 <__umulhisi3>:
    2ee0:	a2 9f       	mul	r26, r18
    2ee2:	b0 01       	movw	r22, r0
    2ee4:	b3 9f       	mul	r27, r19
    2ee6:	c0 01       	movw	r24, r0
    2ee8:	a3 9f       	mul	r26, r19
    2eea:	70 0d       	add	r23, r0
    2eec:	81 1d       	adc	r24, r1
    2eee:	11 24       	eor	r1, r1
    2ef0:	91 1d       	adc	r25, r1
    2ef2:	b2 9f       	mul	r27, r18
    2ef4:	70 0d       	add	r23, r0
    2ef6:	81 1d       	adc	r24, r1
    2ef8:	11 24       	eor	r1, r1
    2efa:	91 1d       	adc	r25, r1
    2efc:	08 95       	ret

00002efe <memcpy>:
    2efe:	fb 01       	movw	r30, r22
    2f00:	dc 01       	movw	r26, r24
    2f02:	02 c0       	rjmp	.+4      	; 0x2f08 <memcpy+0xa>
    2f04:	01 90       	ld	r0, Z+
    2f06:	0d 92       	st	X+, r0
    2f08:	41 50       	subi	r20, 0x01	; 1
    2f0a:	50 40       	sbci	r21, 0x00	; 0
    2f0c:	d8 f7       	brcc	.-10     	; 0x2f04 <memcpy+0x6>
    2f0e:	08 95       	ret

00002f10 <printf_P>:
    2f10:	0f 93       	push	r16
    2f12:	1f 93       	push	r17
    2f14:	cf 93       	push	r28
    2f16:	df 93       	push	r29
    2f18:	cd b7       	in	r28, 0x3d	; 61
    2f1a:	de b7       	in	r29, 0x3e	; 62
    2f1c:	ae 01       	movw	r20, r28
    2f1e:	49 5f       	subi	r20, 0xF9	; 249
    2f20:	5f 4f       	sbci	r21, 0xFF	; 255
    2f22:	da 01       	movw	r26, r20
    2f24:	6d 91       	ld	r22, X+
    2f26:	7d 91       	ld	r23, X+
    2f28:	ad 01       	movw	r20, r26
    2f2a:	05 e8       	ldi	r16, 0x85	; 133
    2f2c:	1e e0       	ldi	r17, 0x0E	; 14
    2f2e:	f8 01       	movw	r30, r16
    2f30:	82 81       	ldd	r24, Z+2	; 0x02
    2f32:	93 81       	ldd	r25, Z+3	; 0x03
    2f34:	dc 01       	movw	r26, r24
    2f36:	13 96       	adiw	r26, 0x03	; 3
    2f38:	2c 91       	ld	r18, X
    2f3a:	13 97       	sbiw	r26, 0x03	; 3
    2f3c:	28 60       	ori	r18, 0x08	; 8
    2f3e:	13 96       	adiw	r26, 0x03	; 3
    2f40:	2c 93       	st	X, r18
    2f42:	0d d0       	rcall	.+26     	; 0x2f5e <vfprintf>
    2f44:	d8 01       	movw	r26, r16
    2f46:	12 96       	adiw	r26, 0x02	; 2
    2f48:	ed 91       	ld	r30, X+
    2f4a:	fc 91       	ld	r31, X
    2f4c:	13 97       	sbiw	r26, 0x03	; 3
    2f4e:	23 81       	ldd	r18, Z+3	; 0x03
    2f50:	27 7f       	andi	r18, 0xF7	; 247
    2f52:	23 83       	std	Z+3, r18	; 0x03
    2f54:	df 91       	pop	r29
    2f56:	cf 91       	pop	r28
    2f58:	1f 91       	pop	r17
    2f5a:	0f 91       	pop	r16
    2f5c:	08 95       	ret

00002f5e <vfprintf>:
    2f5e:	2f 92       	push	r2
    2f60:	3f 92       	push	r3
    2f62:	4f 92       	push	r4
    2f64:	5f 92       	push	r5
    2f66:	6f 92       	push	r6
    2f68:	7f 92       	push	r7
    2f6a:	8f 92       	push	r8
    2f6c:	9f 92       	push	r9
    2f6e:	af 92       	push	r10
    2f70:	bf 92       	push	r11
    2f72:	cf 92       	push	r12
    2f74:	df 92       	push	r13
    2f76:	ef 92       	push	r14
    2f78:	ff 92       	push	r15
    2f7a:	0f 93       	push	r16
    2f7c:	1f 93       	push	r17
    2f7e:	cf 93       	push	r28
    2f80:	df 93       	push	r29
    2f82:	cd b7       	in	r28, 0x3d	; 61
    2f84:	de b7       	in	r29, 0x3e	; 62
    2f86:	2c 97       	sbiw	r28, 0x0c	; 12
    2f88:	0f b6       	in	r0, 0x3f	; 63
    2f8a:	f8 94       	cli
    2f8c:	de bf       	out	0x3e, r29	; 62
    2f8e:	0f be       	out	0x3f, r0	; 63
    2f90:	cd bf       	out	0x3d, r28	; 61
    2f92:	7c 01       	movw	r14, r24
    2f94:	6b 01       	movw	r12, r22
    2f96:	8a 01       	movw	r16, r20
    2f98:	fc 01       	movw	r30, r24
    2f9a:	17 82       	std	Z+7, r1	; 0x07
    2f9c:	16 82       	std	Z+6, r1	; 0x06
    2f9e:	83 81       	ldd	r24, Z+3	; 0x03
    2fa0:	81 ff       	sbrs	r24, 1
    2fa2:	b0 c1       	rjmp	.+864    	; 0x3304 <vfprintf+0x3a6>
    2fa4:	ce 01       	movw	r24, r28
    2fa6:	01 96       	adiw	r24, 0x01	; 1
    2fa8:	4c 01       	movw	r8, r24
    2faa:	f7 01       	movw	r30, r14
    2fac:	93 81       	ldd	r25, Z+3	; 0x03
    2fae:	f6 01       	movw	r30, r12
    2fb0:	93 fd       	sbrc	r25, 3
    2fb2:	85 91       	lpm	r24, Z+
    2fb4:	93 ff       	sbrs	r25, 3
    2fb6:	81 91       	ld	r24, Z+
    2fb8:	6f 01       	movw	r12, r30
    2fba:	88 23       	and	r24, r24
    2fbc:	09 f4       	brne	.+2      	; 0x2fc0 <vfprintf+0x62>
    2fbe:	9e c1       	rjmp	.+828    	; 0x32fc <vfprintf+0x39e>
    2fc0:	85 32       	cpi	r24, 0x25	; 37
    2fc2:	39 f4       	brne	.+14     	; 0x2fd2 <vfprintf+0x74>
    2fc4:	93 fd       	sbrc	r25, 3
    2fc6:	85 91       	lpm	r24, Z+
    2fc8:	93 ff       	sbrs	r25, 3
    2fca:	81 91       	ld	r24, Z+
    2fcc:	6f 01       	movw	r12, r30
    2fce:	85 32       	cpi	r24, 0x25	; 37
    2fd0:	21 f4       	brne	.+8      	; 0x2fda <vfprintf+0x7c>
    2fd2:	b7 01       	movw	r22, r14
    2fd4:	90 e0       	ldi	r25, 0x00	; 0
    2fd6:	c7 d1       	rcall	.+910    	; 0x3366 <fputc>
    2fd8:	e8 cf       	rjmp	.-48     	; 0x2faa <vfprintf+0x4c>
    2fda:	51 2c       	mov	r5, r1
    2fdc:	31 2c       	mov	r3, r1
    2fde:	20 e0       	ldi	r18, 0x00	; 0
    2fe0:	20 32       	cpi	r18, 0x20	; 32
    2fe2:	a0 f4       	brcc	.+40     	; 0x300c <vfprintf+0xae>
    2fe4:	8b 32       	cpi	r24, 0x2B	; 43
    2fe6:	69 f0       	breq	.+26     	; 0x3002 <vfprintf+0xa4>
    2fe8:	30 f4       	brcc	.+12     	; 0x2ff6 <vfprintf+0x98>
    2fea:	80 32       	cpi	r24, 0x20	; 32
    2fec:	59 f0       	breq	.+22     	; 0x3004 <vfprintf+0xa6>
    2fee:	83 32       	cpi	r24, 0x23	; 35
    2ff0:	69 f4       	brne	.+26     	; 0x300c <vfprintf+0xae>
    2ff2:	20 61       	ori	r18, 0x10	; 16
    2ff4:	2c c0       	rjmp	.+88     	; 0x304e <vfprintf+0xf0>
    2ff6:	8d 32       	cpi	r24, 0x2D	; 45
    2ff8:	39 f0       	breq	.+14     	; 0x3008 <vfprintf+0xaa>
    2ffa:	80 33       	cpi	r24, 0x30	; 48
    2ffc:	39 f4       	brne	.+14     	; 0x300c <vfprintf+0xae>
    2ffe:	21 60       	ori	r18, 0x01	; 1
    3000:	26 c0       	rjmp	.+76     	; 0x304e <vfprintf+0xf0>
    3002:	22 60       	ori	r18, 0x02	; 2
    3004:	24 60       	ori	r18, 0x04	; 4
    3006:	23 c0       	rjmp	.+70     	; 0x304e <vfprintf+0xf0>
    3008:	28 60       	ori	r18, 0x08	; 8
    300a:	21 c0       	rjmp	.+66     	; 0x304e <vfprintf+0xf0>
    300c:	27 fd       	sbrc	r18, 7
    300e:	27 c0       	rjmp	.+78     	; 0x305e <vfprintf+0x100>
    3010:	30 ed       	ldi	r19, 0xD0	; 208
    3012:	38 0f       	add	r19, r24
    3014:	3a 30       	cpi	r19, 0x0A	; 10
    3016:	78 f4       	brcc	.+30     	; 0x3036 <vfprintf+0xd8>
    3018:	26 ff       	sbrs	r18, 6
    301a:	06 c0       	rjmp	.+12     	; 0x3028 <vfprintf+0xca>
    301c:	fa e0       	ldi	r31, 0x0A	; 10
    301e:	5f 9e       	mul	r5, r31
    3020:	30 0d       	add	r19, r0
    3022:	11 24       	eor	r1, r1
    3024:	53 2e       	mov	r5, r19
    3026:	13 c0       	rjmp	.+38     	; 0x304e <vfprintf+0xf0>
    3028:	8a e0       	ldi	r24, 0x0A	; 10
    302a:	38 9e       	mul	r3, r24
    302c:	30 0d       	add	r19, r0
    302e:	11 24       	eor	r1, r1
    3030:	33 2e       	mov	r3, r19
    3032:	20 62       	ori	r18, 0x20	; 32
    3034:	0c c0       	rjmp	.+24     	; 0x304e <vfprintf+0xf0>
    3036:	8e 32       	cpi	r24, 0x2E	; 46
    3038:	21 f4       	brne	.+8      	; 0x3042 <vfprintf+0xe4>
    303a:	26 fd       	sbrc	r18, 6
    303c:	5f c1       	rjmp	.+702    	; 0x32fc <vfprintf+0x39e>
    303e:	20 64       	ori	r18, 0x40	; 64
    3040:	06 c0       	rjmp	.+12     	; 0x304e <vfprintf+0xf0>
    3042:	8c 36       	cpi	r24, 0x6C	; 108
    3044:	11 f4       	brne	.+4      	; 0x304a <vfprintf+0xec>
    3046:	20 68       	ori	r18, 0x80	; 128
    3048:	02 c0       	rjmp	.+4      	; 0x304e <vfprintf+0xf0>
    304a:	88 36       	cpi	r24, 0x68	; 104
    304c:	41 f4       	brne	.+16     	; 0x305e <vfprintf+0x100>
    304e:	f6 01       	movw	r30, r12
    3050:	93 fd       	sbrc	r25, 3
    3052:	85 91       	lpm	r24, Z+
    3054:	93 ff       	sbrs	r25, 3
    3056:	81 91       	ld	r24, Z+
    3058:	6f 01       	movw	r12, r30
    305a:	81 11       	cpse	r24, r1
    305c:	c1 cf       	rjmp	.-126    	; 0x2fe0 <vfprintf+0x82>
    305e:	98 2f       	mov	r25, r24
    3060:	9f 7d       	andi	r25, 0xDF	; 223
    3062:	95 54       	subi	r25, 0x45	; 69
    3064:	93 30       	cpi	r25, 0x03	; 3
    3066:	28 f4       	brcc	.+10     	; 0x3072 <vfprintf+0x114>
    3068:	0c 5f       	subi	r16, 0xFC	; 252
    306a:	1f 4f       	sbci	r17, 0xFF	; 255
    306c:	ff e3       	ldi	r31, 0x3F	; 63
    306e:	f9 83       	std	Y+1, r31	; 0x01
    3070:	0d c0       	rjmp	.+26     	; 0x308c <vfprintf+0x12e>
    3072:	83 36       	cpi	r24, 0x63	; 99
    3074:	31 f0       	breq	.+12     	; 0x3082 <vfprintf+0x124>
    3076:	83 37       	cpi	r24, 0x73	; 115
    3078:	71 f0       	breq	.+28     	; 0x3096 <vfprintf+0x138>
    307a:	83 35       	cpi	r24, 0x53	; 83
    307c:	09 f0       	breq	.+2      	; 0x3080 <vfprintf+0x122>
    307e:	57 c0       	rjmp	.+174    	; 0x312e <vfprintf+0x1d0>
    3080:	21 c0       	rjmp	.+66     	; 0x30c4 <vfprintf+0x166>
    3082:	f8 01       	movw	r30, r16
    3084:	80 81       	ld	r24, Z
    3086:	89 83       	std	Y+1, r24	; 0x01
    3088:	0e 5f       	subi	r16, 0xFE	; 254
    308a:	1f 4f       	sbci	r17, 0xFF	; 255
    308c:	44 24       	eor	r4, r4
    308e:	43 94       	inc	r4
    3090:	51 2c       	mov	r5, r1
    3092:	54 01       	movw	r10, r8
    3094:	14 c0       	rjmp	.+40     	; 0x30be <vfprintf+0x160>
    3096:	38 01       	movw	r6, r16
    3098:	f2 e0       	ldi	r31, 0x02	; 2
    309a:	6f 0e       	add	r6, r31
    309c:	71 1c       	adc	r7, r1
    309e:	f8 01       	movw	r30, r16
    30a0:	a0 80       	ld	r10, Z
    30a2:	b1 80       	ldd	r11, Z+1	; 0x01
    30a4:	26 ff       	sbrs	r18, 6
    30a6:	03 c0       	rjmp	.+6      	; 0x30ae <vfprintf+0x150>
    30a8:	65 2d       	mov	r22, r5
    30aa:	70 e0       	ldi	r23, 0x00	; 0
    30ac:	02 c0       	rjmp	.+4      	; 0x30b2 <vfprintf+0x154>
    30ae:	6f ef       	ldi	r22, 0xFF	; 255
    30b0:	7f ef       	ldi	r23, 0xFF	; 255
    30b2:	c5 01       	movw	r24, r10
    30b4:	2c 87       	std	Y+12, r18	; 0x0c
    30b6:	4c d1       	rcall	.+664    	; 0x3350 <strnlen>
    30b8:	2c 01       	movw	r4, r24
    30ba:	83 01       	movw	r16, r6
    30bc:	2c 85       	ldd	r18, Y+12	; 0x0c
    30be:	2f 77       	andi	r18, 0x7F	; 127
    30c0:	22 2e       	mov	r2, r18
    30c2:	16 c0       	rjmp	.+44     	; 0x30f0 <vfprintf+0x192>
    30c4:	38 01       	movw	r6, r16
    30c6:	f2 e0       	ldi	r31, 0x02	; 2
    30c8:	6f 0e       	add	r6, r31
    30ca:	71 1c       	adc	r7, r1
    30cc:	f8 01       	movw	r30, r16
    30ce:	a0 80       	ld	r10, Z
    30d0:	b1 80       	ldd	r11, Z+1	; 0x01
    30d2:	26 ff       	sbrs	r18, 6
    30d4:	03 c0       	rjmp	.+6      	; 0x30dc <vfprintf+0x17e>
    30d6:	65 2d       	mov	r22, r5
    30d8:	70 e0       	ldi	r23, 0x00	; 0
    30da:	02 c0       	rjmp	.+4      	; 0x30e0 <vfprintf+0x182>
    30dc:	6f ef       	ldi	r22, 0xFF	; 255
    30de:	7f ef       	ldi	r23, 0xFF	; 255
    30e0:	c5 01       	movw	r24, r10
    30e2:	2c 87       	std	Y+12, r18	; 0x0c
    30e4:	2a d1       	rcall	.+596    	; 0x333a <strnlen_P>
    30e6:	2c 01       	movw	r4, r24
    30e8:	2c 85       	ldd	r18, Y+12	; 0x0c
    30ea:	20 68       	ori	r18, 0x80	; 128
    30ec:	22 2e       	mov	r2, r18
    30ee:	83 01       	movw	r16, r6
    30f0:	23 fc       	sbrc	r2, 3
    30f2:	19 c0       	rjmp	.+50     	; 0x3126 <vfprintf+0x1c8>
    30f4:	83 2d       	mov	r24, r3
    30f6:	90 e0       	ldi	r25, 0x00	; 0
    30f8:	48 16       	cp	r4, r24
    30fa:	59 06       	cpc	r5, r25
    30fc:	a0 f4       	brcc	.+40     	; 0x3126 <vfprintf+0x1c8>
    30fe:	b7 01       	movw	r22, r14
    3100:	80 e2       	ldi	r24, 0x20	; 32
    3102:	90 e0       	ldi	r25, 0x00	; 0
    3104:	30 d1       	rcall	.+608    	; 0x3366 <fputc>
    3106:	3a 94       	dec	r3
    3108:	f5 cf       	rjmp	.-22     	; 0x30f4 <vfprintf+0x196>
    310a:	f5 01       	movw	r30, r10
    310c:	27 fc       	sbrc	r2, 7
    310e:	85 91       	lpm	r24, Z+
    3110:	27 fe       	sbrs	r2, 7
    3112:	81 91       	ld	r24, Z+
    3114:	5f 01       	movw	r10, r30
    3116:	b7 01       	movw	r22, r14
    3118:	90 e0       	ldi	r25, 0x00	; 0
    311a:	25 d1       	rcall	.+586    	; 0x3366 <fputc>
    311c:	31 10       	cpse	r3, r1
    311e:	3a 94       	dec	r3
    3120:	f1 e0       	ldi	r31, 0x01	; 1
    3122:	4f 1a       	sub	r4, r31
    3124:	51 08       	sbc	r5, r1
    3126:	41 14       	cp	r4, r1
    3128:	51 04       	cpc	r5, r1
    312a:	79 f7       	brne	.-34     	; 0x310a <vfprintf+0x1ac>
    312c:	de c0       	rjmp	.+444    	; 0x32ea <vfprintf+0x38c>
    312e:	84 36       	cpi	r24, 0x64	; 100
    3130:	11 f0       	breq	.+4      	; 0x3136 <vfprintf+0x1d8>
    3132:	89 36       	cpi	r24, 0x69	; 105
    3134:	31 f5       	brne	.+76     	; 0x3182 <vfprintf+0x224>
    3136:	f8 01       	movw	r30, r16
    3138:	27 ff       	sbrs	r18, 7
    313a:	07 c0       	rjmp	.+14     	; 0x314a <vfprintf+0x1ec>
    313c:	60 81       	ld	r22, Z
    313e:	71 81       	ldd	r23, Z+1	; 0x01
    3140:	82 81       	ldd	r24, Z+2	; 0x02
    3142:	93 81       	ldd	r25, Z+3	; 0x03
    3144:	0c 5f       	subi	r16, 0xFC	; 252
    3146:	1f 4f       	sbci	r17, 0xFF	; 255
    3148:	08 c0       	rjmp	.+16     	; 0x315a <vfprintf+0x1fc>
    314a:	60 81       	ld	r22, Z
    314c:	71 81       	ldd	r23, Z+1	; 0x01
    314e:	07 2e       	mov	r0, r23
    3150:	00 0c       	add	r0, r0
    3152:	88 0b       	sbc	r24, r24
    3154:	99 0b       	sbc	r25, r25
    3156:	0e 5f       	subi	r16, 0xFE	; 254
    3158:	1f 4f       	sbci	r17, 0xFF	; 255
    315a:	2f 76       	andi	r18, 0x6F	; 111
    315c:	72 2e       	mov	r7, r18
    315e:	97 ff       	sbrs	r25, 7
    3160:	09 c0       	rjmp	.+18     	; 0x3174 <vfprintf+0x216>
    3162:	90 95       	com	r25
    3164:	80 95       	com	r24
    3166:	70 95       	com	r23
    3168:	61 95       	neg	r22
    316a:	7f 4f       	sbci	r23, 0xFF	; 255
    316c:	8f 4f       	sbci	r24, 0xFF	; 255
    316e:	9f 4f       	sbci	r25, 0xFF	; 255
    3170:	20 68       	ori	r18, 0x80	; 128
    3172:	72 2e       	mov	r7, r18
    3174:	2a e0       	ldi	r18, 0x0A	; 10
    3176:	30 e0       	ldi	r19, 0x00	; 0
    3178:	a4 01       	movw	r20, r8
    317a:	2d d1       	rcall	.+602    	; 0x33d6 <__ultoa_invert>
    317c:	a8 2e       	mov	r10, r24
    317e:	a8 18       	sub	r10, r8
    3180:	43 c0       	rjmp	.+134    	; 0x3208 <vfprintf+0x2aa>
    3182:	85 37       	cpi	r24, 0x75	; 117
    3184:	29 f4       	brne	.+10     	; 0x3190 <vfprintf+0x232>
    3186:	2f 7e       	andi	r18, 0xEF	; 239
    3188:	b2 2e       	mov	r11, r18
    318a:	2a e0       	ldi	r18, 0x0A	; 10
    318c:	30 e0       	ldi	r19, 0x00	; 0
    318e:	25 c0       	rjmp	.+74     	; 0x31da <vfprintf+0x27c>
    3190:	f2 2f       	mov	r31, r18
    3192:	f9 7f       	andi	r31, 0xF9	; 249
    3194:	bf 2e       	mov	r11, r31
    3196:	8f 36       	cpi	r24, 0x6F	; 111
    3198:	c1 f0       	breq	.+48     	; 0x31ca <vfprintf+0x26c>
    319a:	18 f4       	brcc	.+6      	; 0x31a2 <vfprintf+0x244>
    319c:	88 35       	cpi	r24, 0x58	; 88
    319e:	79 f0       	breq	.+30     	; 0x31be <vfprintf+0x260>
    31a0:	ad c0       	rjmp	.+346    	; 0x32fc <vfprintf+0x39e>
    31a2:	80 37       	cpi	r24, 0x70	; 112
    31a4:	19 f0       	breq	.+6      	; 0x31ac <vfprintf+0x24e>
    31a6:	88 37       	cpi	r24, 0x78	; 120
    31a8:	21 f0       	breq	.+8      	; 0x31b2 <vfprintf+0x254>
    31aa:	a8 c0       	rjmp	.+336    	; 0x32fc <vfprintf+0x39e>
    31ac:	2f 2f       	mov	r18, r31
    31ae:	20 61       	ori	r18, 0x10	; 16
    31b0:	b2 2e       	mov	r11, r18
    31b2:	b4 fe       	sbrs	r11, 4
    31b4:	0d c0       	rjmp	.+26     	; 0x31d0 <vfprintf+0x272>
    31b6:	8b 2d       	mov	r24, r11
    31b8:	84 60       	ori	r24, 0x04	; 4
    31ba:	b8 2e       	mov	r11, r24
    31bc:	09 c0       	rjmp	.+18     	; 0x31d0 <vfprintf+0x272>
    31be:	24 ff       	sbrs	r18, 4
    31c0:	0a c0       	rjmp	.+20     	; 0x31d6 <vfprintf+0x278>
    31c2:	9f 2f       	mov	r25, r31
    31c4:	96 60       	ori	r25, 0x06	; 6
    31c6:	b9 2e       	mov	r11, r25
    31c8:	06 c0       	rjmp	.+12     	; 0x31d6 <vfprintf+0x278>
    31ca:	28 e0       	ldi	r18, 0x08	; 8
    31cc:	30 e0       	ldi	r19, 0x00	; 0
    31ce:	05 c0       	rjmp	.+10     	; 0x31da <vfprintf+0x27c>
    31d0:	20 e1       	ldi	r18, 0x10	; 16
    31d2:	30 e0       	ldi	r19, 0x00	; 0
    31d4:	02 c0       	rjmp	.+4      	; 0x31da <vfprintf+0x27c>
    31d6:	20 e1       	ldi	r18, 0x10	; 16
    31d8:	32 e0       	ldi	r19, 0x02	; 2
    31da:	f8 01       	movw	r30, r16
    31dc:	b7 fe       	sbrs	r11, 7
    31de:	07 c0       	rjmp	.+14     	; 0x31ee <vfprintf+0x290>
    31e0:	60 81       	ld	r22, Z
    31e2:	71 81       	ldd	r23, Z+1	; 0x01
    31e4:	82 81       	ldd	r24, Z+2	; 0x02
    31e6:	93 81       	ldd	r25, Z+3	; 0x03
    31e8:	0c 5f       	subi	r16, 0xFC	; 252
    31ea:	1f 4f       	sbci	r17, 0xFF	; 255
    31ec:	06 c0       	rjmp	.+12     	; 0x31fa <vfprintf+0x29c>
    31ee:	60 81       	ld	r22, Z
    31f0:	71 81       	ldd	r23, Z+1	; 0x01
    31f2:	80 e0       	ldi	r24, 0x00	; 0
    31f4:	90 e0       	ldi	r25, 0x00	; 0
    31f6:	0e 5f       	subi	r16, 0xFE	; 254
    31f8:	1f 4f       	sbci	r17, 0xFF	; 255
    31fa:	a4 01       	movw	r20, r8
    31fc:	ec d0       	rcall	.+472    	; 0x33d6 <__ultoa_invert>
    31fe:	a8 2e       	mov	r10, r24
    3200:	a8 18       	sub	r10, r8
    3202:	fb 2d       	mov	r31, r11
    3204:	ff 77       	andi	r31, 0x7F	; 127
    3206:	7f 2e       	mov	r7, r31
    3208:	76 fe       	sbrs	r7, 6
    320a:	0b c0       	rjmp	.+22     	; 0x3222 <vfprintf+0x2c4>
    320c:	37 2d       	mov	r19, r7
    320e:	3e 7f       	andi	r19, 0xFE	; 254
    3210:	a5 14       	cp	r10, r5
    3212:	50 f4       	brcc	.+20     	; 0x3228 <vfprintf+0x2ca>
    3214:	74 fe       	sbrs	r7, 4
    3216:	0a c0       	rjmp	.+20     	; 0x322c <vfprintf+0x2ce>
    3218:	72 fc       	sbrc	r7, 2
    321a:	08 c0       	rjmp	.+16     	; 0x322c <vfprintf+0x2ce>
    321c:	37 2d       	mov	r19, r7
    321e:	3e 7e       	andi	r19, 0xEE	; 238
    3220:	05 c0       	rjmp	.+10     	; 0x322c <vfprintf+0x2ce>
    3222:	ba 2c       	mov	r11, r10
    3224:	37 2d       	mov	r19, r7
    3226:	03 c0       	rjmp	.+6      	; 0x322e <vfprintf+0x2d0>
    3228:	ba 2c       	mov	r11, r10
    322a:	01 c0       	rjmp	.+2      	; 0x322e <vfprintf+0x2d0>
    322c:	b5 2c       	mov	r11, r5
    322e:	34 ff       	sbrs	r19, 4
    3230:	0d c0       	rjmp	.+26     	; 0x324c <vfprintf+0x2ee>
    3232:	fe 01       	movw	r30, r28
    3234:	ea 0d       	add	r30, r10
    3236:	f1 1d       	adc	r31, r1
    3238:	80 81       	ld	r24, Z
    323a:	80 33       	cpi	r24, 0x30	; 48
    323c:	11 f4       	brne	.+4      	; 0x3242 <vfprintf+0x2e4>
    323e:	39 7e       	andi	r19, 0xE9	; 233
    3240:	09 c0       	rjmp	.+18     	; 0x3254 <vfprintf+0x2f6>
    3242:	32 ff       	sbrs	r19, 2
    3244:	06 c0       	rjmp	.+12     	; 0x3252 <vfprintf+0x2f4>
    3246:	b3 94       	inc	r11
    3248:	b3 94       	inc	r11
    324a:	04 c0       	rjmp	.+8      	; 0x3254 <vfprintf+0x2f6>
    324c:	83 2f       	mov	r24, r19
    324e:	86 78       	andi	r24, 0x86	; 134
    3250:	09 f0       	breq	.+2      	; 0x3254 <vfprintf+0x2f6>
    3252:	b3 94       	inc	r11
    3254:	33 fd       	sbrc	r19, 3
    3256:	12 c0       	rjmp	.+36     	; 0x327c <vfprintf+0x31e>
    3258:	30 ff       	sbrs	r19, 0
    325a:	06 c0       	rjmp	.+12     	; 0x3268 <vfprintf+0x30a>
    325c:	5a 2c       	mov	r5, r10
    325e:	b3 14       	cp	r11, r3
    3260:	18 f4       	brcc	.+6      	; 0x3268 <vfprintf+0x30a>
    3262:	53 0c       	add	r5, r3
    3264:	5b 18       	sub	r5, r11
    3266:	b3 2c       	mov	r11, r3
    3268:	b3 14       	cp	r11, r3
    326a:	60 f4       	brcc	.+24     	; 0x3284 <vfprintf+0x326>
    326c:	b7 01       	movw	r22, r14
    326e:	80 e2       	ldi	r24, 0x20	; 32
    3270:	90 e0       	ldi	r25, 0x00	; 0
    3272:	3c 87       	std	Y+12, r19	; 0x0c
    3274:	78 d0       	rcall	.+240    	; 0x3366 <fputc>
    3276:	b3 94       	inc	r11
    3278:	3c 85       	ldd	r19, Y+12	; 0x0c
    327a:	f6 cf       	rjmp	.-20     	; 0x3268 <vfprintf+0x30a>
    327c:	b3 14       	cp	r11, r3
    327e:	10 f4       	brcc	.+4      	; 0x3284 <vfprintf+0x326>
    3280:	3b 18       	sub	r3, r11
    3282:	01 c0       	rjmp	.+2      	; 0x3286 <vfprintf+0x328>
    3284:	31 2c       	mov	r3, r1
    3286:	34 ff       	sbrs	r19, 4
    3288:	11 c0       	rjmp	.+34     	; 0x32ac <vfprintf+0x34e>
    328a:	b7 01       	movw	r22, r14
    328c:	80 e3       	ldi	r24, 0x30	; 48
    328e:	90 e0       	ldi	r25, 0x00	; 0
    3290:	3c 87       	std	Y+12, r19	; 0x0c
    3292:	69 d0       	rcall	.+210    	; 0x3366 <fputc>
    3294:	3c 85       	ldd	r19, Y+12	; 0x0c
    3296:	32 ff       	sbrs	r19, 2
    3298:	16 c0       	rjmp	.+44     	; 0x32c6 <vfprintf+0x368>
    329a:	31 fd       	sbrc	r19, 1
    329c:	03 c0       	rjmp	.+6      	; 0x32a4 <vfprintf+0x346>
    329e:	88 e7       	ldi	r24, 0x78	; 120
    32a0:	90 e0       	ldi	r25, 0x00	; 0
    32a2:	02 c0       	rjmp	.+4      	; 0x32a8 <vfprintf+0x34a>
    32a4:	88 e5       	ldi	r24, 0x58	; 88
    32a6:	90 e0       	ldi	r25, 0x00	; 0
    32a8:	b7 01       	movw	r22, r14
    32aa:	0c c0       	rjmp	.+24     	; 0x32c4 <vfprintf+0x366>
    32ac:	83 2f       	mov	r24, r19
    32ae:	86 78       	andi	r24, 0x86	; 134
    32b0:	51 f0       	breq	.+20     	; 0x32c6 <vfprintf+0x368>
    32b2:	31 ff       	sbrs	r19, 1
    32b4:	02 c0       	rjmp	.+4      	; 0x32ba <vfprintf+0x35c>
    32b6:	8b e2       	ldi	r24, 0x2B	; 43
    32b8:	01 c0       	rjmp	.+2      	; 0x32bc <vfprintf+0x35e>
    32ba:	80 e2       	ldi	r24, 0x20	; 32
    32bc:	37 fd       	sbrc	r19, 7
    32be:	8d e2       	ldi	r24, 0x2D	; 45
    32c0:	b7 01       	movw	r22, r14
    32c2:	90 e0       	ldi	r25, 0x00	; 0
    32c4:	50 d0       	rcall	.+160    	; 0x3366 <fputc>
    32c6:	a5 14       	cp	r10, r5
    32c8:	30 f4       	brcc	.+12     	; 0x32d6 <vfprintf+0x378>
    32ca:	b7 01       	movw	r22, r14
    32cc:	80 e3       	ldi	r24, 0x30	; 48
    32ce:	90 e0       	ldi	r25, 0x00	; 0
    32d0:	4a d0       	rcall	.+148    	; 0x3366 <fputc>
    32d2:	5a 94       	dec	r5
    32d4:	f8 cf       	rjmp	.-16     	; 0x32c6 <vfprintf+0x368>
    32d6:	aa 94       	dec	r10
    32d8:	f4 01       	movw	r30, r8
    32da:	ea 0d       	add	r30, r10
    32dc:	f1 1d       	adc	r31, r1
    32de:	80 81       	ld	r24, Z
    32e0:	b7 01       	movw	r22, r14
    32e2:	90 e0       	ldi	r25, 0x00	; 0
    32e4:	40 d0       	rcall	.+128    	; 0x3366 <fputc>
    32e6:	a1 10       	cpse	r10, r1
    32e8:	f6 cf       	rjmp	.-20     	; 0x32d6 <vfprintf+0x378>
    32ea:	33 20       	and	r3, r3
    32ec:	09 f4       	brne	.+2      	; 0x32f0 <vfprintf+0x392>
    32ee:	5d ce       	rjmp	.-838    	; 0x2faa <vfprintf+0x4c>
    32f0:	b7 01       	movw	r22, r14
    32f2:	80 e2       	ldi	r24, 0x20	; 32
    32f4:	90 e0       	ldi	r25, 0x00	; 0
    32f6:	37 d0       	rcall	.+110    	; 0x3366 <fputc>
    32f8:	3a 94       	dec	r3
    32fa:	f7 cf       	rjmp	.-18     	; 0x32ea <vfprintf+0x38c>
    32fc:	f7 01       	movw	r30, r14
    32fe:	86 81       	ldd	r24, Z+6	; 0x06
    3300:	97 81       	ldd	r25, Z+7	; 0x07
    3302:	02 c0       	rjmp	.+4      	; 0x3308 <vfprintf+0x3aa>
    3304:	8f ef       	ldi	r24, 0xFF	; 255
    3306:	9f ef       	ldi	r25, 0xFF	; 255
    3308:	2c 96       	adiw	r28, 0x0c	; 12
    330a:	0f b6       	in	r0, 0x3f	; 63
    330c:	f8 94       	cli
    330e:	de bf       	out	0x3e, r29	; 62
    3310:	0f be       	out	0x3f, r0	; 63
    3312:	cd bf       	out	0x3d, r28	; 61
    3314:	df 91       	pop	r29
    3316:	cf 91       	pop	r28
    3318:	1f 91       	pop	r17
    331a:	0f 91       	pop	r16
    331c:	ff 90       	pop	r15
    331e:	ef 90       	pop	r14
    3320:	df 90       	pop	r13
    3322:	cf 90       	pop	r12
    3324:	bf 90       	pop	r11
    3326:	af 90       	pop	r10
    3328:	9f 90       	pop	r9
    332a:	8f 90       	pop	r8
    332c:	7f 90       	pop	r7
    332e:	6f 90       	pop	r6
    3330:	5f 90       	pop	r5
    3332:	4f 90       	pop	r4
    3334:	3f 90       	pop	r3
    3336:	2f 90       	pop	r2
    3338:	08 95       	ret

0000333a <strnlen_P>:
    333a:	fc 01       	movw	r30, r24
    333c:	05 90       	lpm	r0, Z+
    333e:	61 50       	subi	r22, 0x01	; 1
    3340:	70 40       	sbci	r23, 0x00	; 0
    3342:	01 10       	cpse	r0, r1
    3344:	d8 f7       	brcc	.-10     	; 0x333c <strnlen_P+0x2>
    3346:	80 95       	com	r24
    3348:	90 95       	com	r25
    334a:	8e 0f       	add	r24, r30
    334c:	9f 1f       	adc	r25, r31
    334e:	08 95       	ret

00003350 <strnlen>:
    3350:	fc 01       	movw	r30, r24
    3352:	61 50       	subi	r22, 0x01	; 1
    3354:	70 40       	sbci	r23, 0x00	; 0
    3356:	01 90       	ld	r0, Z+
    3358:	01 10       	cpse	r0, r1
    335a:	d8 f7       	brcc	.-10     	; 0x3352 <strnlen+0x2>
    335c:	80 95       	com	r24
    335e:	90 95       	com	r25
    3360:	8e 0f       	add	r24, r30
    3362:	9f 1f       	adc	r25, r31
    3364:	08 95       	ret

00003366 <fputc>:
    3366:	0f 93       	push	r16
    3368:	1f 93       	push	r17
    336a:	cf 93       	push	r28
    336c:	df 93       	push	r29
    336e:	fb 01       	movw	r30, r22
    3370:	23 81       	ldd	r18, Z+3	; 0x03
    3372:	21 fd       	sbrc	r18, 1
    3374:	03 c0       	rjmp	.+6      	; 0x337c <fputc+0x16>
    3376:	8f ef       	ldi	r24, 0xFF	; 255
    3378:	9f ef       	ldi	r25, 0xFF	; 255
    337a:	28 c0       	rjmp	.+80     	; 0x33cc <fputc+0x66>
    337c:	22 ff       	sbrs	r18, 2
    337e:	16 c0       	rjmp	.+44     	; 0x33ac <fputc+0x46>
    3380:	46 81       	ldd	r20, Z+6	; 0x06
    3382:	57 81       	ldd	r21, Z+7	; 0x07
    3384:	24 81       	ldd	r18, Z+4	; 0x04
    3386:	35 81       	ldd	r19, Z+5	; 0x05
    3388:	42 17       	cp	r20, r18
    338a:	53 07       	cpc	r21, r19
    338c:	44 f4       	brge	.+16     	; 0x339e <fputc+0x38>
    338e:	a0 81       	ld	r26, Z
    3390:	b1 81       	ldd	r27, Z+1	; 0x01
    3392:	9d 01       	movw	r18, r26
    3394:	2f 5f       	subi	r18, 0xFF	; 255
    3396:	3f 4f       	sbci	r19, 0xFF	; 255
    3398:	31 83       	std	Z+1, r19	; 0x01
    339a:	20 83       	st	Z, r18
    339c:	8c 93       	st	X, r24
    339e:	26 81       	ldd	r18, Z+6	; 0x06
    33a0:	37 81       	ldd	r19, Z+7	; 0x07
    33a2:	2f 5f       	subi	r18, 0xFF	; 255
    33a4:	3f 4f       	sbci	r19, 0xFF	; 255
    33a6:	37 83       	std	Z+7, r19	; 0x07
    33a8:	26 83       	std	Z+6, r18	; 0x06
    33aa:	10 c0       	rjmp	.+32     	; 0x33cc <fputc+0x66>
    33ac:	eb 01       	movw	r28, r22
    33ae:	09 2f       	mov	r16, r25
    33b0:	18 2f       	mov	r17, r24
    33b2:	00 84       	ldd	r0, Z+8	; 0x08
    33b4:	f1 85       	ldd	r31, Z+9	; 0x09
    33b6:	e0 2d       	mov	r30, r0
    33b8:	09 95       	icall
    33ba:	89 2b       	or	r24, r25
    33bc:	e1 f6       	brne	.-72     	; 0x3376 <fputc+0x10>
    33be:	8e 81       	ldd	r24, Y+6	; 0x06
    33c0:	9f 81       	ldd	r25, Y+7	; 0x07
    33c2:	01 96       	adiw	r24, 0x01	; 1
    33c4:	9f 83       	std	Y+7, r25	; 0x07
    33c6:	8e 83       	std	Y+6, r24	; 0x06
    33c8:	81 2f       	mov	r24, r17
    33ca:	90 2f       	mov	r25, r16
    33cc:	df 91       	pop	r29
    33ce:	cf 91       	pop	r28
    33d0:	1f 91       	pop	r17
    33d2:	0f 91       	pop	r16
    33d4:	08 95       	ret

000033d6 <__ultoa_invert>:
    33d6:	fa 01       	movw	r30, r20
    33d8:	aa 27       	eor	r26, r26
    33da:	28 30       	cpi	r18, 0x08	; 8
    33dc:	51 f1       	breq	.+84     	; 0x3432 <__ultoa_invert+0x5c>
    33de:	20 31       	cpi	r18, 0x10	; 16
    33e0:	81 f1       	breq	.+96     	; 0x3442 <__ultoa_invert+0x6c>
    33e2:	e8 94       	clt
    33e4:	6f 93       	push	r22
    33e6:	6e 7f       	andi	r22, 0xFE	; 254
    33e8:	6e 5f       	subi	r22, 0xFE	; 254
    33ea:	7f 4f       	sbci	r23, 0xFF	; 255
    33ec:	8f 4f       	sbci	r24, 0xFF	; 255
    33ee:	9f 4f       	sbci	r25, 0xFF	; 255
    33f0:	af 4f       	sbci	r26, 0xFF	; 255
    33f2:	b1 e0       	ldi	r27, 0x01	; 1
    33f4:	3e d0       	rcall	.+124    	; 0x3472 <__ultoa_invert+0x9c>
    33f6:	b4 e0       	ldi	r27, 0x04	; 4
    33f8:	3c d0       	rcall	.+120    	; 0x3472 <__ultoa_invert+0x9c>
    33fa:	67 0f       	add	r22, r23
    33fc:	78 1f       	adc	r23, r24
    33fe:	89 1f       	adc	r24, r25
    3400:	9a 1f       	adc	r25, r26
    3402:	a1 1d       	adc	r26, r1
    3404:	68 0f       	add	r22, r24
    3406:	79 1f       	adc	r23, r25
    3408:	8a 1f       	adc	r24, r26
    340a:	91 1d       	adc	r25, r1
    340c:	a1 1d       	adc	r26, r1
    340e:	6a 0f       	add	r22, r26
    3410:	71 1d       	adc	r23, r1
    3412:	81 1d       	adc	r24, r1
    3414:	91 1d       	adc	r25, r1
    3416:	a1 1d       	adc	r26, r1
    3418:	20 d0       	rcall	.+64     	; 0x345a <__ultoa_invert+0x84>
    341a:	09 f4       	brne	.+2      	; 0x341e <__ultoa_invert+0x48>
    341c:	68 94       	set
    341e:	3f 91       	pop	r19
    3420:	2a e0       	ldi	r18, 0x0A	; 10
    3422:	26 9f       	mul	r18, r22
    3424:	11 24       	eor	r1, r1
    3426:	30 19       	sub	r19, r0
    3428:	30 5d       	subi	r19, 0xD0	; 208
    342a:	31 93       	st	Z+, r19
    342c:	de f6       	brtc	.-74     	; 0x33e4 <__ultoa_invert+0xe>
    342e:	cf 01       	movw	r24, r30
    3430:	08 95       	ret
    3432:	46 2f       	mov	r20, r22
    3434:	47 70       	andi	r20, 0x07	; 7
    3436:	40 5d       	subi	r20, 0xD0	; 208
    3438:	41 93       	st	Z+, r20
    343a:	b3 e0       	ldi	r27, 0x03	; 3
    343c:	0f d0       	rcall	.+30     	; 0x345c <__ultoa_invert+0x86>
    343e:	c9 f7       	brne	.-14     	; 0x3432 <__ultoa_invert+0x5c>
    3440:	f6 cf       	rjmp	.-20     	; 0x342e <__ultoa_invert+0x58>
    3442:	46 2f       	mov	r20, r22
    3444:	4f 70       	andi	r20, 0x0F	; 15
    3446:	40 5d       	subi	r20, 0xD0	; 208
    3448:	4a 33       	cpi	r20, 0x3A	; 58
    344a:	18 f0       	brcs	.+6      	; 0x3452 <__ultoa_invert+0x7c>
    344c:	49 5d       	subi	r20, 0xD9	; 217
    344e:	31 fd       	sbrc	r19, 1
    3450:	40 52       	subi	r20, 0x20	; 32
    3452:	41 93       	st	Z+, r20
    3454:	02 d0       	rcall	.+4      	; 0x345a <__ultoa_invert+0x84>
    3456:	a9 f7       	brne	.-22     	; 0x3442 <__ultoa_invert+0x6c>
    3458:	ea cf       	rjmp	.-44     	; 0x342e <__ultoa_invert+0x58>
    345a:	b4 e0       	ldi	r27, 0x04	; 4
    345c:	a6 95       	lsr	r26
    345e:	97 95       	ror	r25
    3460:	87 95       	ror	r24
    3462:	77 95       	ror	r23
    3464:	67 95       	ror	r22
    3466:	ba 95       	dec	r27
    3468:	c9 f7       	brne	.-14     	; 0x345c <__ultoa_invert+0x86>
    346a:	00 97       	sbiw	r24, 0x00	; 0
    346c:	61 05       	cpc	r22, r1
    346e:	71 05       	cpc	r23, r1
    3470:	08 95       	ret
    3472:	9b 01       	movw	r18, r22
    3474:	ac 01       	movw	r20, r24
    3476:	0a 2e       	mov	r0, r26
    3478:	06 94       	lsr	r0
    347a:	57 95       	ror	r21
    347c:	47 95       	ror	r20
    347e:	37 95       	ror	r19
    3480:	27 95       	ror	r18
    3482:	ba 95       	dec	r27
    3484:	c9 f7       	brne	.-14     	; 0x3478 <__ultoa_invert+0xa2>
    3486:	62 0f       	add	r22, r18
    3488:	73 1f       	adc	r23, r19
    348a:	84 1f       	adc	r24, r20
    348c:	95 1f       	adc	r25, r21
    348e:	a0 1d       	adc	r26, r0
    3490:	08 95       	ret

00003492 <_exit>:
    3492:	f8 94       	cli

00003494 <__stop_program>:
    3494:	ff cf       	rjmp	.-2      	; 0x3494 <__stop_program>
